ARM GAS  /tmp/ccntKEh2.s 			page 1


   1              		.cpu cortex-m4
   2              		.eabi_attribute 27, 1
   3              		.eabi_attribute 28, 1
   4              		.eabi_attribute 20, 1
   5              		.eabi_attribute 21, 1
   6              		.eabi_attribute 23, 3
   7              		.eabi_attribute 24, 1
   8              		.eabi_attribute 25, 1
   9              		.eabi_attribute 26, 1
  10              		.eabi_attribute 30, 1
  11              		.eabi_attribute 34, 1
  12              		.eabi_attribute 18, 4
  13              		.file	"usbh_ctlreq.c"
  14              		.text
  15              	.Ltext0:
  16              		.cfi_sections	.debug_frame
  17              		.section	.text.USBH_ParseDevDesc,"ax",%progbits
  18              		.align	1
  19              		.arch armv7e-m
  20              		.syntax unified
  21              		.thumb
  22              		.thumb_func
  23              		.fpu fpv4-sp-d16
  25              	USBH_ParseDevDesc:
  26              	.LVL0:
  27              	.LFB142:
  28              		.file 1 "Middlewares/ST/STM32_USB_Host_Library/Core/Src/usbh_ctlreq.c"
   1:Middlewares/ST/STM32_USB_Host_Library/Core/Src/usbh_ctlreq.c **** /**
   2:Middlewares/ST/STM32_USB_Host_Library/Core/Src/usbh_ctlreq.c ****   ******************************************************************************
   3:Middlewares/ST/STM32_USB_Host_Library/Core/Src/usbh_ctlreq.c ****   * @file    usbh_ctlreq.c
   4:Middlewares/ST/STM32_USB_Host_Library/Core/Src/usbh_ctlreq.c ****   * @author  MCD Application Team
   5:Middlewares/ST/STM32_USB_Host_Library/Core/Src/usbh_ctlreq.c ****   * @brief   This file implements the control requests for device enumeration
   6:Middlewares/ST/STM32_USB_Host_Library/Core/Src/usbh_ctlreq.c ****   ******************************************************************************
   7:Middlewares/ST/STM32_USB_Host_Library/Core/Src/usbh_ctlreq.c ****   * @attention
   8:Middlewares/ST/STM32_USB_Host_Library/Core/Src/usbh_ctlreq.c ****   *
   9:Middlewares/ST/STM32_USB_Host_Library/Core/Src/usbh_ctlreq.c ****   * <h2><center>&copy; Copyright (c) 2015 STMicroelectronics.
  10:Middlewares/ST/STM32_USB_Host_Library/Core/Src/usbh_ctlreq.c ****   * All rights reserved.</center></h2>
  11:Middlewares/ST/STM32_USB_Host_Library/Core/Src/usbh_ctlreq.c ****   *
  12:Middlewares/ST/STM32_USB_Host_Library/Core/Src/usbh_ctlreq.c ****   * This software component is licensed by ST under Ultimate Liberty license
  13:Middlewares/ST/STM32_USB_Host_Library/Core/Src/usbh_ctlreq.c ****   * SLA0044, the "License"; You may not use this file except in compliance with
  14:Middlewares/ST/STM32_USB_Host_Library/Core/Src/usbh_ctlreq.c ****   * the License. You may obtain a copy of the License at:
  15:Middlewares/ST/STM32_USB_Host_Library/Core/Src/usbh_ctlreq.c ****   *                      http://www.st.com/SLA0044
  16:Middlewares/ST/STM32_USB_Host_Library/Core/Src/usbh_ctlreq.c ****   *
  17:Middlewares/ST/STM32_USB_Host_Library/Core/Src/usbh_ctlreq.c ****   ******************************************************************************
  18:Middlewares/ST/STM32_USB_Host_Library/Core/Src/usbh_ctlreq.c ****   */
  19:Middlewares/ST/STM32_USB_Host_Library/Core/Src/usbh_ctlreq.c **** 
  20:Middlewares/ST/STM32_USB_Host_Library/Core/Src/usbh_ctlreq.c **** /* Includes ------------------------------------------------------------------*/
  21:Middlewares/ST/STM32_USB_Host_Library/Core/Src/usbh_ctlreq.c **** 
  22:Middlewares/ST/STM32_USB_Host_Library/Core/Src/usbh_ctlreq.c **** #include "usbh_ctlreq.h"
  23:Middlewares/ST/STM32_USB_Host_Library/Core/Src/usbh_ctlreq.c **** 
  24:Middlewares/ST/STM32_USB_Host_Library/Core/Src/usbh_ctlreq.c **** /** @addtogroup USBH_LIB
  25:Middlewares/ST/STM32_USB_Host_Library/Core/Src/usbh_ctlreq.c **** * @{
  26:Middlewares/ST/STM32_USB_Host_Library/Core/Src/usbh_ctlreq.c **** */
  27:Middlewares/ST/STM32_USB_Host_Library/Core/Src/usbh_ctlreq.c **** 
  28:Middlewares/ST/STM32_USB_Host_Library/Core/Src/usbh_ctlreq.c **** /** @addtogroup USBH_LIB_CORE
  29:Middlewares/ST/STM32_USB_Host_Library/Core/Src/usbh_ctlreq.c **** * @{
  30:Middlewares/ST/STM32_USB_Host_Library/Core/Src/usbh_ctlreq.c **** */
ARM GAS  /tmp/ccntKEh2.s 			page 2


  31:Middlewares/ST/STM32_USB_Host_Library/Core/Src/usbh_ctlreq.c **** 
  32:Middlewares/ST/STM32_USB_Host_Library/Core/Src/usbh_ctlreq.c **** /** @defgroup USBH_CTLREQ
  33:Middlewares/ST/STM32_USB_Host_Library/Core/Src/usbh_ctlreq.c **** * @brief This file implements the standard requests for device enumeration
  34:Middlewares/ST/STM32_USB_Host_Library/Core/Src/usbh_ctlreq.c **** * @{
  35:Middlewares/ST/STM32_USB_Host_Library/Core/Src/usbh_ctlreq.c **** */
  36:Middlewares/ST/STM32_USB_Host_Library/Core/Src/usbh_ctlreq.c **** 
  37:Middlewares/ST/STM32_USB_Host_Library/Core/Src/usbh_ctlreq.c **** 
  38:Middlewares/ST/STM32_USB_Host_Library/Core/Src/usbh_ctlreq.c **** /** @defgroup USBH_CTLREQ_Private_Defines
  39:Middlewares/ST/STM32_USB_Host_Library/Core/Src/usbh_ctlreq.c **** * @{
  40:Middlewares/ST/STM32_USB_Host_Library/Core/Src/usbh_ctlreq.c **** */
  41:Middlewares/ST/STM32_USB_Host_Library/Core/Src/usbh_ctlreq.c **** /**
  42:Middlewares/ST/STM32_USB_Host_Library/Core/Src/usbh_ctlreq.c **** * @}
  43:Middlewares/ST/STM32_USB_Host_Library/Core/Src/usbh_ctlreq.c **** */
  44:Middlewares/ST/STM32_USB_Host_Library/Core/Src/usbh_ctlreq.c **** 
  45:Middlewares/ST/STM32_USB_Host_Library/Core/Src/usbh_ctlreq.c **** 
  46:Middlewares/ST/STM32_USB_Host_Library/Core/Src/usbh_ctlreq.c **** /** @defgroup USBH_CTLREQ_Private_TypesDefinitions
  47:Middlewares/ST/STM32_USB_Host_Library/Core/Src/usbh_ctlreq.c **** * @{
  48:Middlewares/ST/STM32_USB_Host_Library/Core/Src/usbh_ctlreq.c **** */
  49:Middlewares/ST/STM32_USB_Host_Library/Core/Src/usbh_ctlreq.c **** /**
  50:Middlewares/ST/STM32_USB_Host_Library/Core/Src/usbh_ctlreq.c **** * @}
  51:Middlewares/ST/STM32_USB_Host_Library/Core/Src/usbh_ctlreq.c **** */
  52:Middlewares/ST/STM32_USB_Host_Library/Core/Src/usbh_ctlreq.c **** 
  53:Middlewares/ST/STM32_USB_Host_Library/Core/Src/usbh_ctlreq.c **** 
  54:Middlewares/ST/STM32_USB_Host_Library/Core/Src/usbh_ctlreq.c **** 
  55:Middlewares/ST/STM32_USB_Host_Library/Core/Src/usbh_ctlreq.c **** /** @defgroup USBH_CTLREQ_Private_Macros
  56:Middlewares/ST/STM32_USB_Host_Library/Core/Src/usbh_ctlreq.c **** * @{
  57:Middlewares/ST/STM32_USB_Host_Library/Core/Src/usbh_ctlreq.c **** */
  58:Middlewares/ST/STM32_USB_Host_Library/Core/Src/usbh_ctlreq.c **** /**
  59:Middlewares/ST/STM32_USB_Host_Library/Core/Src/usbh_ctlreq.c **** * @}
  60:Middlewares/ST/STM32_USB_Host_Library/Core/Src/usbh_ctlreq.c **** */
  61:Middlewares/ST/STM32_USB_Host_Library/Core/Src/usbh_ctlreq.c **** 
  62:Middlewares/ST/STM32_USB_Host_Library/Core/Src/usbh_ctlreq.c **** 
  63:Middlewares/ST/STM32_USB_Host_Library/Core/Src/usbh_ctlreq.c **** /** @defgroup USBH_CTLREQ_Private_Variables
  64:Middlewares/ST/STM32_USB_Host_Library/Core/Src/usbh_ctlreq.c **** * @{
  65:Middlewares/ST/STM32_USB_Host_Library/Core/Src/usbh_ctlreq.c **** */
  66:Middlewares/ST/STM32_USB_Host_Library/Core/Src/usbh_ctlreq.c **** /**
  67:Middlewares/ST/STM32_USB_Host_Library/Core/Src/usbh_ctlreq.c **** * @}
  68:Middlewares/ST/STM32_USB_Host_Library/Core/Src/usbh_ctlreq.c **** */
  69:Middlewares/ST/STM32_USB_Host_Library/Core/Src/usbh_ctlreq.c **** 
  70:Middlewares/ST/STM32_USB_Host_Library/Core/Src/usbh_ctlreq.c **** /** @defgroup USBH_CTLREQ_Private_FunctionPrototypes
  71:Middlewares/ST/STM32_USB_Host_Library/Core/Src/usbh_ctlreq.c **** * @{
  72:Middlewares/ST/STM32_USB_Host_Library/Core/Src/usbh_ctlreq.c **** */
  73:Middlewares/ST/STM32_USB_Host_Library/Core/Src/usbh_ctlreq.c **** static USBH_StatusTypeDef USBH_HandleControl (USBH_HandleTypeDef *phost);
  74:Middlewares/ST/STM32_USB_Host_Library/Core/Src/usbh_ctlreq.c **** 
  75:Middlewares/ST/STM32_USB_Host_Library/Core/Src/usbh_ctlreq.c **** static void USBH_ParseDevDesc (USBH_DevDescTypeDef *dev_desc, uint8_t *buf,
  76:Middlewares/ST/STM32_USB_Host_Library/Core/Src/usbh_ctlreq.c ****                                uint16_t length);
  77:Middlewares/ST/STM32_USB_Host_Library/Core/Src/usbh_ctlreq.c **** 
  78:Middlewares/ST/STM32_USB_Host_Library/Core/Src/usbh_ctlreq.c **** static void USBH_ParseCfgDesc (USBH_CfgDescTypeDef *cfg_desc, uint8_t *buf,
  79:Middlewares/ST/STM32_USB_Host_Library/Core/Src/usbh_ctlreq.c ****                                uint16_t length);
  80:Middlewares/ST/STM32_USB_Host_Library/Core/Src/usbh_ctlreq.c **** 
  81:Middlewares/ST/STM32_USB_Host_Library/Core/Src/usbh_ctlreq.c **** static void USBH_ParseEPDesc (USBH_EpDescTypeDef  *ep_descriptor, uint8_t *buf);
  82:Middlewares/ST/STM32_USB_Host_Library/Core/Src/usbh_ctlreq.c **** static void USBH_ParseStringDesc (uint8_t* psrc, uint8_t* pdest, uint16_t length);
  83:Middlewares/ST/STM32_USB_Host_Library/Core/Src/usbh_ctlreq.c **** static void USBH_ParseInterfaceDesc (USBH_InterfaceDescTypeDef  *if_descriptor, uint8_t *buf);
  84:Middlewares/ST/STM32_USB_Host_Library/Core/Src/usbh_ctlreq.c **** 
  85:Middlewares/ST/STM32_USB_Host_Library/Core/Src/usbh_ctlreq.c **** 
  86:Middlewares/ST/STM32_USB_Host_Library/Core/Src/usbh_ctlreq.c **** /**
  87:Middlewares/ST/STM32_USB_Host_Library/Core/Src/usbh_ctlreq.c **** * @}
ARM GAS  /tmp/ccntKEh2.s 			page 3


  88:Middlewares/ST/STM32_USB_Host_Library/Core/Src/usbh_ctlreq.c **** */
  89:Middlewares/ST/STM32_USB_Host_Library/Core/Src/usbh_ctlreq.c **** 
  90:Middlewares/ST/STM32_USB_Host_Library/Core/Src/usbh_ctlreq.c **** 
  91:Middlewares/ST/STM32_USB_Host_Library/Core/Src/usbh_ctlreq.c **** /** @defgroup USBH_CTLREQ_Private_Functions
  92:Middlewares/ST/STM32_USB_Host_Library/Core/Src/usbh_ctlreq.c **** * @{
  93:Middlewares/ST/STM32_USB_Host_Library/Core/Src/usbh_ctlreq.c **** */
  94:Middlewares/ST/STM32_USB_Host_Library/Core/Src/usbh_ctlreq.c **** 
  95:Middlewares/ST/STM32_USB_Host_Library/Core/Src/usbh_ctlreq.c **** 
  96:Middlewares/ST/STM32_USB_Host_Library/Core/Src/usbh_ctlreq.c **** /**
  97:Middlewares/ST/STM32_USB_Host_Library/Core/Src/usbh_ctlreq.c ****   * @brief  USBH_Get_DevDesc
  98:Middlewares/ST/STM32_USB_Host_Library/Core/Src/usbh_ctlreq.c ****   *         Issue Get Device Descriptor command to the device. Once the response
  99:Middlewares/ST/STM32_USB_Host_Library/Core/Src/usbh_ctlreq.c ****   *         received, it parses the device descriptor and updates the status.
 100:Middlewares/ST/STM32_USB_Host_Library/Core/Src/usbh_ctlreq.c ****   * @param  phost: Host Handle
 101:Middlewares/ST/STM32_USB_Host_Library/Core/Src/usbh_ctlreq.c ****   * @param  length: Length of the descriptor
 102:Middlewares/ST/STM32_USB_Host_Library/Core/Src/usbh_ctlreq.c ****   * @retval USBH Status
 103:Middlewares/ST/STM32_USB_Host_Library/Core/Src/usbh_ctlreq.c ****   */
 104:Middlewares/ST/STM32_USB_Host_Library/Core/Src/usbh_ctlreq.c **** USBH_StatusTypeDef USBH_Get_DevDesc(USBH_HandleTypeDef *phost, uint8_t length)
 105:Middlewares/ST/STM32_USB_Host_Library/Core/Src/usbh_ctlreq.c **** {
 106:Middlewares/ST/STM32_USB_Host_Library/Core/Src/usbh_ctlreq.c ****   USBH_StatusTypeDef status;
 107:Middlewares/ST/STM32_USB_Host_Library/Core/Src/usbh_ctlreq.c **** 
 108:Middlewares/ST/STM32_USB_Host_Library/Core/Src/usbh_ctlreq.c ****   if((status = USBH_GetDescriptor(phost,
 109:Middlewares/ST/STM32_USB_Host_Library/Core/Src/usbh_ctlreq.c ****                                   USB_REQ_RECIPIENT_DEVICE | USB_REQ_TYPE_STANDARD,
 110:Middlewares/ST/STM32_USB_Host_Library/Core/Src/usbh_ctlreq.c ****                                   USB_DESC_DEVICE,
 111:Middlewares/ST/STM32_USB_Host_Library/Core/Src/usbh_ctlreq.c ****                                   phost->device.Data,
 112:Middlewares/ST/STM32_USB_Host_Library/Core/Src/usbh_ctlreq.c ****                                   (uint16_t)length)) == USBH_OK)
 113:Middlewares/ST/STM32_USB_Host_Library/Core/Src/usbh_ctlreq.c ****   {
 114:Middlewares/ST/STM32_USB_Host_Library/Core/Src/usbh_ctlreq.c ****     /* Commands successfully sent and Response Received */
 115:Middlewares/ST/STM32_USB_Host_Library/Core/Src/usbh_ctlreq.c ****     USBH_ParseDevDesc(&phost->device.DevDesc, phost->device.Data,
 116:Middlewares/ST/STM32_USB_Host_Library/Core/Src/usbh_ctlreq.c ****                       (uint16_t)length);
 117:Middlewares/ST/STM32_USB_Host_Library/Core/Src/usbh_ctlreq.c ****   }
 118:Middlewares/ST/STM32_USB_Host_Library/Core/Src/usbh_ctlreq.c ****   return status;
 119:Middlewares/ST/STM32_USB_Host_Library/Core/Src/usbh_ctlreq.c **** }
 120:Middlewares/ST/STM32_USB_Host_Library/Core/Src/usbh_ctlreq.c **** 
 121:Middlewares/ST/STM32_USB_Host_Library/Core/Src/usbh_ctlreq.c **** /**
 122:Middlewares/ST/STM32_USB_Host_Library/Core/Src/usbh_ctlreq.c ****   * @brief  USBH_Get_CfgDesc
 123:Middlewares/ST/STM32_USB_Host_Library/Core/Src/usbh_ctlreq.c ****   *         Issues Configuration Descriptor to the device. Once the response
 124:Middlewares/ST/STM32_USB_Host_Library/Core/Src/usbh_ctlreq.c ****   *         received, it parses the configuration descriptor and updates the
 125:Middlewares/ST/STM32_USB_Host_Library/Core/Src/usbh_ctlreq.c ****   *         status.
 126:Middlewares/ST/STM32_USB_Host_Library/Core/Src/usbh_ctlreq.c ****   * @param  phost: Host Handle
 127:Middlewares/ST/STM32_USB_Host_Library/Core/Src/usbh_ctlreq.c ****   * @param  length: Length of the descriptor
 128:Middlewares/ST/STM32_USB_Host_Library/Core/Src/usbh_ctlreq.c ****   * @retval USBH Status
 129:Middlewares/ST/STM32_USB_Host_Library/Core/Src/usbh_ctlreq.c ****   */
 130:Middlewares/ST/STM32_USB_Host_Library/Core/Src/usbh_ctlreq.c **** USBH_StatusTypeDef USBH_Get_CfgDesc(USBH_HandleTypeDef *phost,
 131:Middlewares/ST/STM32_USB_Host_Library/Core/Src/usbh_ctlreq.c ****                              uint16_t length)
 132:Middlewares/ST/STM32_USB_Host_Library/Core/Src/usbh_ctlreq.c **** 
 133:Middlewares/ST/STM32_USB_Host_Library/Core/Src/usbh_ctlreq.c **** {
 134:Middlewares/ST/STM32_USB_Host_Library/Core/Src/usbh_ctlreq.c ****   USBH_StatusTypeDef status;
 135:Middlewares/ST/STM32_USB_Host_Library/Core/Src/usbh_ctlreq.c ****   uint8_t *pData;
 136:Middlewares/ST/STM32_USB_Host_Library/Core/Src/usbh_ctlreq.c **** #if (USBH_KEEP_CFG_DESCRIPTOR == 1U)
 137:Middlewares/ST/STM32_USB_Host_Library/Core/Src/usbh_ctlreq.c ****   pData = phost->device.CfgDesc_Raw;
 138:Middlewares/ST/STM32_USB_Host_Library/Core/Src/usbh_ctlreq.c **** #else
 139:Middlewares/ST/STM32_USB_Host_Library/Core/Src/usbh_ctlreq.c ****   pData = phost->device.Data;
 140:Middlewares/ST/STM32_USB_Host_Library/Core/Src/usbh_ctlreq.c **** #endif
 141:Middlewares/ST/STM32_USB_Host_Library/Core/Src/usbh_ctlreq.c ****   if((status = USBH_GetDescriptor(phost,
 142:Middlewares/ST/STM32_USB_Host_Library/Core/Src/usbh_ctlreq.c ****                                   USB_REQ_RECIPIENT_DEVICE | USB_REQ_TYPE_STANDARD,
 143:Middlewares/ST/STM32_USB_Host_Library/Core/Src/usbh_ctlreq.c ****                                   USB_DESC_CONFIGURATION,
 144:Middlewares/ST/STM32_USB_Host_Library/Core/Src/usbh_ctlreq.c ****                                   pData,
ARM GAS  /tmp/ccntKEh2.s 			page 4


 145:Middlewares/ST/STM32_USB_Host_Library/Core/Src/usbh_ctlreq.c ****                                   length)) == USBH_OK)
 146:Middlewares/ST/STM32_USB_Host_Library/Core/Src/usbh_ctlreq.c ****   {
 147:Middlewares/ST/STM32_USB_Host_Library/Core/Src/usbh_ctlreq.c **** 
 148:Middlewares/ST/STM32_USB_Host_Library/Core/Src/usbh_ctlreq.c ****     /* Commands successfully sent and Response Received  */
 149:Middlewares/ST/STM32_USB_Host_Library/Core/Src/usbh_ctlreq.c ****     USBH_ParseCfgDesc (&phost->device.CfgDesc,
 150:Middlewares/ST/STM32_USB_Host_Library/Core/Src/usbh_ctlreq.c ****                        pData,
 151:Middlewares/ST/STM32_USB_Host_Library/Core/Src/usbh_ctlreq.c ****                        length);
 152:Middlewares/ST/STM32_USB_Host_Library/Core/Src/usbh_ctlreq.c **** 
 153:Middlewares/ST/STM32_USB_Host_Library/Core/Src/usbh_ctlreq.c ****   }
 154:Middlewares/ST/STM32_USB_Host_Library/Core/Src/usbh_ctlreq.c ****   return status;
 155:Middlewares/ST/STM32_USB_Host_Library/Core/Src/usbh_ctlreq.c **** }
 156:Middlewares/ST/STM32_USB_Host_Library/Core/Src/usbh_ctlreq.c **** 
 157:Middlewares/ST/STM32_USB_Host_Library/Core/Src/usbh_ctlreq.c **** 
 158:Middlewares/ST/STM32_USB_Host_Library/Core/Src/usbh_ctlreq.c **** /**
 159:Middlewares/ST/STM32_USB_Host_Library/Core/Src/usbh_ctlreq.c ****   * @brief  USBH_Get_StringDesc
 160:Middlewares/ST/STM32_USB_Host_Library/Core/Src/usbh_ctlreq.c ****   *         Issues string Descriptor command to the device. Once the response
 161:Middlewares/ST/STM32_USB_Host_Library/Core/Src/usbh_ctlreq.c ****   *         received, it parses the string descriptor and updates the status.
 162:Middlewares/ST/STM32_USB_Host_Library/Core/Src/usbh_ctlreq.c ****   * @param  phost: Host Handle
 163:Middlewares/ST/STM32_USB_Host_Library/Core/Src/usbh_ctlreq.c ****   * @param  string_index: String index for the descriptor
 164:Middlewares/ST/STM32_USB_Host_Library/Core/Src/usbh_ctlreq.c ****   * @param  buff: Buffer address for the descriptor
 165:Middlewares/ST/STM32_USB_Host_Library/Core/Src/usbh_ctlreq.c ****   * @param  length: Length of the descriptor
 166:Middlewares/ST/STM32_USB_Host_Library/Core/Src/usbh_ctlreq.c ****   * @retval USBH Status
 167:Middlewares/ST/STM32_USB_Host_Library/Core/Src/usbh_ctlreq.c ****   */
 168:Middlewares/ST/STM32_USB_Host_Library/Core/Src/usbh_ctlreq.c **** USBH_StatusTypeDef USBH_Get_StringDesc(USBH_HandleTypeDef *phost,
 169:Middlewares/ST/STM32_USB_Host_Library/Core/Src/usbh_ctlreq.c ****                                 uint8_t string_index,
 170:Middlewares/ST/STM32_USB_Host_Library/Core/Src/usbh_ctlreq.c ****                                 uint8_t *buff,
 171:Middlewares/ST/STM32_USB_Host_Library/Core/Src/usbh_ctlreq.c ****                                 uint16_t length)
 172:Middlewares/ST/STM32_USB_Host_Library/Core/Src/usbh_ctlreq.c **** {
 173:Middlewares/ST/STM32_USB_Host_Library/Core/Src/usbh_ctlreq.c ****   USBH_StatusTypeDef status;
 174:Middlewares/ST/STM32_USB_Host_Library/Core/Src/usbh_ctlreq.c ****   if((status = USBH_GetDescriptor(phost,
 175:Middlewares/ST/STM32_USB_Host_Library/Core/Src/usbh_ctlreq.c ****                                   USB_REQ_RECIPIENT_DEVICE | USB_REQ_TYPE_STANDARD,
 176:Middlewares/ST/STM32_USB_Host_Library/Core/Src/usbh_ctlreq.c ****                                   USB_DESC_STRING | string_index,
 177:Middlewares/ST/STM32_USB_Host_Library/Core/Src/usbh_ctlreq.c ****                                   phost->device.Data,
 178:Middlewares/ST/STM32_USB_Host_Library/Core/Src/usbh_ctlreq.c ****                                   length)) == USBH_OK)
 179:Middlewares/ST/STM32_USB_Host_Library/Core/Src/usbh_ctlreq.c ****   {
 180:Middlewares/ST/STM32_USB_Host_Library/Core/Src/usbh_ctlreq.c ****     /* Commands successfully sent and Response Received  */
 181:Middlewares/ST/STM32_USB_Host_Library/Core/Src/usbh_ctlreq.c ****     USBH_ParseStringDesc(phost->device.Data,buff, length);
 182:Middlewares/ST/STM32_USB_Host_Library/Core/Src/usbh_ctlreq.c ****   }
 183:Middlewares/ST/STM32_USB_Host_Library/Core/Src/usbh_ctlreq.c ****   return status;
 184:Middlewares/ST/STM32_USB_Host_Library/Core/Src/usbh_ctlreq.c **** }
 185:Middlewares/ST/STM32_USB_Host_Library/Core/Src/usbh_ctlreq.c **** 
 186:Middlewares/ST/STM32_USB_Host_Library/Core/Src/usbh_ctlreq.c **** /**
 187:Middlewares/ST/STM32_USB_Host_Library/Core/Src/usbh_ctlreq.c ****   * @brief  USBH_GetDescriptor
 188:Middlewares/ST/STM32_USB_Host_Library/Core/Src/usbh_ctlreq.c ****   *         Issues Descriptor command to the device. Once the response received,
 189:Middlewares/ST/STM32_USB_Host_Library/Core/Src/usbh_ctlreq.c ****   *         it parses the descriptor and updates the status.
 190:Middlewares/ST/STM32_USB_Host_Library/Core/Src/usbh_ctlreq.c ****   * @param  phost: Host Handle
 191:Middlewares/ST/STM32_USB_Host_Library/Core/Src/usbh_ctlreq.c ****   * @param  req_type: Descriptor type
 192:Middlewares/ST/STM32_USB_Host_Library/Core/Src/usbh_ctlreq.c ****   * @param  value_idx: Value for the GetDescriptr request
 193:Middlewares/ST/STM32_USB_Host_Library/Core/Src/usbh_ctlreq.c ****   * @param  buff: Buffer to store the descriptor
 194:Middlewares/ST/STM32_USB_Host_Library/Core/Src/usbh_ctlreq.c ****   * @param  length: Length of the descriptor
 195:Middlewares/ST/STM32_USB_Host_Library/Core/Src/usbh_ctlreq.c ****   * @retval USBH Status
 196:Middlewares/ST/STM32_USB_Host_Library/Core/Src/usbh_ctlreq.c ****   */
 197:Middlewares/ST/STM32_USB_Host_Library/Core/Src/usbh_ctlreq.c **** USBH_StatusTypeDef USBH_GetDescriptor(USBH_HandleTypeDef *phost,
 198:Middlewares/ST/STM32_USB_Host_Library/Core/Src/usbh_ctlreq.c ****                                uint8_t  req_type,
 199:Middlewares/ST/STM32_USB_Host_Library/Core/Src/usbh_ctlreq.c ****                                uint16_t value_idx,
 200:Middlewares/ST/STM32_USB_Host_Library/Core/Src/usbh_ctlreq.c ****                                uint8_t* buff,
 201:Middlewares/ST/STM32_USB_Host_Library/Core/Src/usbh_ctlreq.c ****                                uint16_t length)
ARM GAS  /tmp/ccntKEh2.s 			page 5


 202:Middlewares/ST/STM32_USB_Host_Library/Core/Src/usbh_ctlreq.c **** {
 203:Middlewares/ST/STM32_USB_Host_Library/Core/Src/usbh_ctlreq.c ****   if(phost->RequestState == CMD_SEND)
 204:Middlewares/ST/STM32_USB_Host_Library/Core/Src/usbh_ctlreq.c ****   {
 205:Middlewares/ST/STM32_USB_Host_Library/Core/Src/usbh_ctlreq.c ****     phost->Control.setup.b.bmRequestType = USB_D2H | req_type;
 206:Middlewares/ST/STM32_USB_Host_Library/Core/Src/usbh_ctlreq.c ****     phost->Control.setup.b.bRequest = USB_REQ_GET_DESCRIPTOR;
 207:Middlewares/ST/STM32_USB_Host_Library/Core/Src/usbh_ctlreq.c ****     phost->Control.setup.b.wValue.w = value_idx;
 208:Middlewares/ST/STM32_USB_Host_Library/Core/Src/usbh_ctlreq.c **** 
 209:Middlewares/ST/STM32_USB_Host_Library/Core/Src/usbh_ctlreq.c ****     if ((value_idx & 0xff00U) == USB_DESC_STRING)
 210:Middlewares/ST/STM32_USB_Host_Library/Core/Src/usbh_ctlreq.c ****     {
 211:Middlewares/ST/STM32_USB_Host_Library/Core/Src/usbh_ctlreq.c ****       phost->Control.setup.b.wIndex.w = 0x0409U;
 212:Middlewares/ST/STM32_USB_Host_Library/Core/Src/usbh_ctlreq.c ****     }
 213:Middlewares/ST/STM32_USB_Host_Library/Core/Src/usbh_ctlreq.c ****     else
 214:Middlewares/ST/STM32_USB_Host_Library/Core/Src/usbh_ctlreq.c ****     {
 215:Middlewares/ST/STM32_USB_Host_Library/Core/Src/usbh_ctlreq.c ****       phost->Control.setup.b.wIndex.w = 0U;
 216:Middlewares/ST/STM32_USB_Host_Library/Core/Src/usbh_ctlreq.c ****     }
 217:Middlewares/ST/STM32_USB_Host_Library/Core/Src/usbh_ctlreq.c ****     phost->Control.setup.b.wLength.w = length;
 218:Middlewares/ST/STM32_USB_Host_Library/Core/Src/usbh_ctlreq.c ****   }
 219:Middlewares/ST/STM32_USB_Host_Library/Core/Src/usbh_ctlreq.c ****   return USBH_CtlReq(phost, buff, length);
 220:Middlewares/ST/STM32_USB_Host_Library/Core/Src/usbh_ctlreq.c **** }
 221:Middlewares/ST/STM32_USB_Host_Library/Core/Src/usbh_ctlreq.c **** 
 222:Middlewares/ST/STM32_USB_Host_Library/Core/Src/usbh_ctlreq.c **** /**
 223:Middlewares/ST/STM32_USB_Host_Library/Core/Src/usbh_ctlreq.c ****   * @brief  USBH_SetAddress
 224:Middlewares/ST/STM32_USB_Host_Library/Core/Src/usbh_ctlreq.c ****   *         This command sets the address to the connected device
 225:Middlewares/ST/STM32_USB_Host_Library/Core/Src/usbh_ctlreq.c ****   * @param  phost: Host Handle
 226:Middlewares/ST/STM32_USB_Host_Library/Core/Src/usbh_ctlreq.c ****   * @param  DeviceAddress: Device address to assign
 227:Middlewares/ST/STM32_USB_Host_Library/Core/Src/usbh_ctlreq.c ****   * @retval USBH Status
 228:Middlewares/ST/STM32_USB_Host_Library/Core/Src/usbh_ctlreq.c ****   */
 229:Middlewares/ST/STM32_USB_Host_Library/Core/Src/usbh_ctlreq.c **** USBH_StatusTypeDef USBH_SetAddress(USBH_HandleTypeDef *phost,
 230:Middlewares/ST/STM32_USB_Host_Library/Core/Src/usbh_ctlreq.c ****                                    uint8_t DeviceAddress)
 231:Middlewares/ST/STM32_USB_Host_Library/Core/Src/usbh_ctlreq.c **** {
 232:Middlewares/ST/STM32_USB_Host_Library/Core/Src/usbh_ctlreq.c ****   if(phost->RequestState == CMD_SEND)
 233:Middlewares/ST/STM32_USB_Host_Library/Core/Src/usbh_ctlreq.c ****   {
 234:Middlewares/ST/STM32_USB_Host_Library/Core/Src/usbh_ctlreq.c ****     phost->Control.setup.b.bmRequestType = USB_H2D | USB_REQ_RECIPIENT_DEVICE | \
 235:Middlewares/ST/STM32_USB_Host_Library/Core/Src/usbh_ctlreq.c ****       USB_REQ_TYPE_STANDARD;
 236:Middlewares/ST/STM32_USB_Host_Library/Core/Src/usbh_ctlreq.c **** 
 237:Middlewares/ST/STM32_USB_Host_Library/Core/Src/usbh_ctlreq.c ****     phost->Control.setup.b.bRequest = USB_REQ_SET_ADDRESS;
 238:Middlewares/ST/STM32_USB_Host_Library/Core/Src/usbh_ctlreq.c **** 
 239:Middlewares/ST/STM32_USB_Host_Library/Core/Src/usbh_ctlreq.c ****     phost->Control.setup.b.wValue.w = (uint16_t)DeviceAddress;
 240:Middlewares/ST/STM32_USB_Host_Library/Core/Src/usbh_ctlreq.c ****     phost->Control.setup.b.wIndex.w = 0U;
 241:Middlewares/ST/STM32_USB_Host_Library/Core/Src/usbh_ctlreq.c ****     phost->Control.setup.b.wLength.w = 0U;
 242:Middlewares/ST/STM32_USB_Host_Library/Core/Src/usbh_ctlreq.c ****   }
 243:Middlewares/ST/STM32_USB_Host_Library/Core/Src/usbh_ctlreq.c ****   return USBH_CtlReq(phost, 0U, 0U);
 244:Middlewares/ST/STM32_USB_Host_Library/Core/Src/usbh_ctlreq.c **** }
 245:Middlewares/ST/STM32_USB_Host_Library/Core/Src/usbh_ctlreq.c **** 
 246:Middlewares/ST/STM32_USB_Host_Library/Core/Src/usbh_ctlreq.c **** /**
 247:Middlewares/ST/STM32_USB_Host_Library/Core/Src/usbh_ctlreq.c ****   * @brief  USBH_SetCfg
 248:Middlewares/ST/STM32_USB_Host_Library/Core/Src/usbh_ctlreq.c ****   *         The command sets the configuration value to the connected device
 249:Middlewares/ST/STM32_USB_Host_Library/Core/Src/usbh_ctlreq.c ****   * @param  phost: Host Handle
 250:Middlewares/ST/STM32_USB_Host_Library/Core/Src/usbh_ctlreq.c ****   * @param  cfg_idx: Configuration value
 251:Middlewares/ST/STM32_USB_Host_Library/Core/Src/usbh_ctlreq.c ****   * @retval USBH Status
 252:Middlewares/ST/STM32_USB_Host_Library/Core/Src/usbh_ctlreq.c ****   */
 253:Middlewares/ST/STM32_USB_Host_Library/Core/Src/usbh_ctlreq.c **** USBH_StatusTypeDef USBH_SetCfg(USBH_HandleTypeDef *phost, uint16_t cfg_idx)
 254:Middlewares/ST/STM32_USB_Host_Library/Core/Src/usbh_ctlreq.c **** {
 255:Middlewares/ST/STM32_USB_Host_Library/Core/Src/usbh_ctlreq.c ****   if(phost->RequestState == CMD_SEND)
 256:Middlewares/ST/STM32_USB_Host_Library/Core/Src/usbh_ctlreq.c ****   {
 257:Middlewares/ST/STM32_USB_Host_Library/Core/Src/usbh_ctlreq.c ****     phost->Control.setup.b.bmRequestType = USB_H2D | USB_REQ_RECIPIENT_DEVICE
 258:Middlewares/ST/STM32_USB_Host_Library/Core/Src/usbh_ctlreq.c ****                                                    | USB_REQ_TYPE_STANDARD;
ARM GAS  /tmp/ccntKEh2.s 			page 6


 259:Middlewares/ST/STM32_USB_Host_Library/Core/Src/usbh_ctlreq.c **** 
 260:Middlewares/ST/STM32_USB_Host_Library/Core/Src/usbh_ctlreq.c ****     phost->Control.setup.b.bRequest = USB_REQ_SET_CONFIGURATION;
 261:Middlewares/ST/STM32_USB_Host_Library/Core/Src/usbh_ctlreq.c ****     phost->Control.setup.b.wValue.w = cfg_idx;
 262:Middlewares/ST/STM32_USB_Host_Library/Core/Src/usbh_ctlreq.c ****     phost->Control.setup.b.wIndex.w = 0U;
 263:Middlewares/ST/STM32_USB_Host_Library/Core/Src/usbh_ctlreq.c ****     phost->Control.setup.b.wLength.w = 0U;
 264:Middlewares/ST/STM32_USB_Host_Library/Core/Src/usbh_ctlreq.c ****   }
 265:Middlewares/ST/STM32_USB_Host_Library/Core/Src/usbh_ctlreq.c **** 
 266:Middlewares/ST/STM32_USB_Host_Library/Core/Src/usbh_ctlreq.c ****   return USBH_CtlReq(phost, 0U , 0U);
 267:Middlewares/ST/STM32_USB_Host_Library/Core/Src/usbh_ctlreq.c **** }
 268:Middlewares/ST/STM32_USB_Host_Library/Core/Src/usbh_ctlreq.c **** 
 269:Middlewares/ST/STM32_USB_Host_Library/Core/Src/usbh_ctlreq.c **** /**
 270:Middlewares/ST/STM32_USB_Host_Library/Core/Src/usbh_ctlreq.c ****   * @brief  USBH_SetInterface
 271:Middlewares/ST/STM32_USB_Host_Library/Core/Src/usbh_ctlreq.c ****   *         The command sets the Interface value to the connected device
 272:Middlewares/ST/STM32_USB_Host_Library/Core/Src/usbh_ctlreq.c ****   * @param  phost: Host Handle
 273:Middlewares/ST/STM32_USB_Host_Library/Core/Src/usbh_ctlreq.c ****   * @param  altSetting: Interface value
 274:Middlewares/ST/STM32_USB_Host_Library/Core/Src/usbh_ctlreq.c ****   * @retval USBH Status
 275:Middlewares/ST/STM32_USB_Host_Library/Core/Src/usbh_ctlreq.c ****   */
 276:Middlewares/ST/STM32_USB_Host_Library/Core/Src/usbh_ctlreq.c **** USBH_StatusTypeDef USBH_SetInterface(USBH_HandleTypeDef *phost, uint8_t ep_num,
 277:Middlewares/ST/STM32_USB_Host_Library/Core/Src/usbh_ctlreq.c ****                                      uint8_t altSetting)
 278:Middlewares/ST/STM32_USB_Host_Library/Core/Src/usbh_ctlreq.c **** {
 279:Middlewares/ST/STM32_USB_Host_Library/Core/Src/usbh_ctlreq.c ****   if(phost->RequestState == CMD_SEND)
 280:Middlewares/ST/STM32_USB_Host_Library/Core/Src/usbh_ctlreq.c ****   {
 281:Middlewares/ST/STM32_USB_Host_Library/Core/Src/usbh_ctlreq.c ****     phost->Control.setup.b.bmRequestType = USB_H2D | USB_REQ_RECIPIENT_INTERFACE
 282:Middlewares/ST/STM32_USB_Host_Library/Core/Src/usbh_ctlreq.c ****                                                    | USB_REQ_TYPE_STANDARD;
 283:Middlewares/ST/STM32_USB_Host_Library/Core/Src/usbh_ctlreq.c **** 
 284:Middlewares/ST/STM32_USB_Host_Library/Core/Src/usbh_ctlreq.c ****     phost->Control.setup.b.bRequest = USB_REQ_SET_INTERFACE;
 285:Middlewares/ST/STM32_USB_Host_Library/Core/Src/usbh_ctlreq.c ****     phost->Control.setup.b.wValue.w = altSetting;
 286:Middlewares/ST/STM32_USB_Host_Library/Core/Src/usbh_ctlreq.c ****     phost->Control.setup.b.wIndex.w = ep_num;
 287:Middlewares/ST/STM32_USB_Host_Library/Core/Src/usbh_ctlreq.c ****     phost->Control.setup.b.wLength.w = 0U;
 288:Middlewares/ST/STM32_USB_Host_Library/Core/Src/usbh_ctlreq.c ****   }
 289:Middlewares/ST/STM32_USB_Host_Library/Core/Src/usbh_ctlreq.c ****   return USBH_CtlReq(phost, 0U , 0U);
 290:Middlewares/ST/STM32_USB_Host_Library/Core/Src/usbh_ctlreq.c **** }
 291:Middlewares/ST/STM32_USB_Host_Library/Core/Src/usbh_ctlreq.c **** 
 292:Middlewares/ST/STM32_USB_Host_Library/Core/Src/usbh_ctlreq.c **** /**
 293:Middlewares/ST/STM32_USB_Host_Library/Core/Src/usbh_ctlreq.c ****   * @brief  USBH_SetFeature
 294:Middlewares/ST/STM32_USB_Host_Library/Core/Src/usbh_ctlreq.c ****   *         The command sets the device features (remote wakeup feature,..)
 295:Middlewares/ST/STM32_USB_Host_Library/Core/Src/usbh_ctlreq.c ****   * @param  pdev: Selected device
 296:Middlewares/ST/STM32_USB_Host_Library/Core/Src/usbh_ctlreq.c ****   * @param  itf_idx
 297:Middlewares/ST/STM32_USB_Host_Library/Core/Src/usbh_ctlreq.c ****   * @retval Status
 298:Middlewares/ST/STM32_USB_Host_Library/Core/Src/usbh_ctlreq.c **** */
 299:Middlewares/ST/STM32_USB_Host_Library/Core/Src/usbh_ctlreq.c **** USBH_StatusTypeDef USBH_SetFeature(USBH_HandleTypeDef *phost, uint8_t wValue)
 300:Middlewares/ST/STM32_USB_Host_Library/Core/Src/usbh_ctlreq.c **** {
 301:Middlewares/ST/STM32_USB_Host_Library/Core/Src/usbh_ctlreq.c ****   if(phost->RequestState == CMD_SEND)
 302:Middlewares/ST/STM32_USB_Host_Library/Core/Src/usbh_ctlreq.c ****   {
 303:Middlewares/ST/STM32_USB_Host_Library/Core/Src/usbh_ctlreq.c ****     phost->Control.setup.b.bmRequestType = USB_H2D | USB_REQ_RECIPIENT_DEVICE
 304:Middlewares/ST/STM32_USB_Host_Library/Core/Src/usbh_ctlreq.c ****                                                    | USB_REQ_TYPE_STANDARD;
 305:Middlewares/ST/STM32_USB_Host_Library/Core/Src/usbh_ctlreq.c **** 
 306:Middlewares/ST/STM32_USB_Host_Library/Core/Src/usbh_ctlreq.c ****     phost->Control.setup.b.bRequest = USB_REQ_SET_FEATURE;
 307:Middlewares/ST/STM32_USB_Host_Library/Core/Src/usbh_ctlreq.c ****     phost->Control.setup.b.wValue.w = wValue;
 308:Middlewares/ST/STM32_USB_Host_Library/Core/Src/usbh_ctlreq.c ****     phost->Control.setup.b.wIndex.w = 0U;
 309:Middlewares/ST/STM32_USB_Host_Library/Core/Src/usbh_ctlreq.c ****     phost->Control.setup.b.wLength.w = 0U;
 310:Middlewares/ST/STM32_USB_Host_Library/Core/Src/usbh_ctlreq.c ****   }
 311:Middlewares/ST/STM32_USB_Host_Library/Core/Src/usbh_ctlreq.c **** 
 312:Middlewares/ST/STM32_USB_Host_Library/Core/Src/usbh_ctlreq.c ****   return USBH_CtlReq(phost, 0U, 0U);
 313:Middlewares/ST/STM32_USB_Host_Library/Core/Src/usbh_ctlreq.c **** }
 314:Middlewares/ST/STM32_USB_Host_Library/Core/Src/usbh_ctlreq.c **** 
 315:Middlewares/ST/STM32_USB_Host_Library/Core/Src/usbh_ctlreq.c **** /**
ARM GAS  /tmp/ccntKEh2.s 			page 7


 316:Middlewares/ST/STM32_USB_Host_Library/Core/Src/usbh_ctlreq.c ****   * @brief  USBH_ClrFeature
 317:Middlewares/ST/STM32_USB_Host_Library/Core/Src/usbh_ctlreq.c ****   *         This request is used to clear or disable a specific feature.
 318:Middlewares/ST/STM32_USB_Host_Library/Core/Src/usbh_ctlreq.c ****   * @param  phost: Host Handle
 319:Middlewares/ST/STM32_USB_Host_Library/Core/Src/usbh_ctlreq.c ****   * @param  ep_num: endpoint number
 320:Middlewares/ST/STM32_USB_Host_Library/Core/Src/usbh_ctlreq.c ****   * @param  hc_num: Host channel number
 321:Middlewares/ST/STM32_USB_Host_Library/Core/Src/usbh_ctlreq.c ****   * @retval USBH Status
 322:Middlewares/ST/STM32_USB_Host_Library/Core/Src/usbh_ctlreq.c ****   */
 323:Middlewares/ST/STM32_USB_Host_Library/Core/Src/usbh_ctlreq.c **** USBH_StatusTypeDef USBH_ClrFeature(USBH_HandleTypeDef *phost, uint8_t ep_num)
 324:Middlewares/ST/STM32_USB_Host_Library/Core/Src/usbh_ctlreq.c **** {
 325:Middlewares/ST/STM32_USB_Host_Library/Core/Src/usbh_ctlreq.c ****   if(phost->RequestState == CMD_SEND)
 326:Middlewares/ST/STM32_USB_Host_Library/Core/Src/usbh_ctlreq.c ****   {
 327:Middlewares/ST/STM32_USB_Host_Library/Core/Src/usbh_ctlreq.c ****     phost->Control.setup.b.bmRequestType = USB_H2D | USB_REQ_RECIPIENT_ENDPOINT
 328:Middlewares/ST/STM32_USB_Host_Library/Core/Src/usbh_ctlreq.c ****                                                    | USB_REQ_TYPE_STANDARD;
 329:Middlewares/ST/STM32_USB_Host_Library/Core/Src/usbh_ctlreq.c **** 
 330:Middlewares/ST/STM32_USB_Host_Library/Core/Src/usbh_ctlreq.c ****     phost->Control.setup.b.bRequest = USB_REQ_CLEAR_FEATURE;
 331:Middlewares/ST/STM32_USB_Host_Library/Core/Src/usbh_ctlreq.c ****     phost->Control.setup.b.wValue.w = FEATURE_SELECTOR_ENDPOINT;
 332:Middlewares/ST/STM32_USB_Host_Library/Core/Src/usbh_ctlreq.c ****     phost->Control.setup.b.wIndex.w = ep_num;
 333:Middlewares/ST/STM32_USB_Host_Library/Core/Src/usbh_ctlreq.c ****     phost->Control.setup.b.wLength.w = 0U;
 334:Middlewares/ST/STM32_USB_Host_Library/Core/Src/usbh_ctlreq.c ****   }
 335:Middlewares/ST/STM32_USB_Host_Library/Core/Src/usbh_ctlreq.c ****   return USBH_CtlReq(phost, 0U , 0U);
 336:Middlewares/ST/STM32_USB_Host_Library/Core/Src/usbh_ctlreq.c **** }
 337:Middlewares/ST/STM32_USB_Host_Library/Core/Src/usbh_ctlreq.c **** 
 338:Middlewares/ST/STM32_USB_Host_Library/Core/Src/usbh_ctlreq.c **** /**
 339:Middlewares/ST/STM32_USB_Host_Library/Core/Src/usbh_ctlreq.c ****   * @brief  USBH_ParseDevDesc
 340:Middlewares/ST/STM32_USB_Host_Library/Core/Src/usbh_ctlreq.c ****   *         This function Parses the device descriptor
 341:Middlewares/ST/STM32_USB_Host_Library/Core/Src/usbh_ctlreq.c ****   * @param  dev_desc: device_descriptor destination address
 342:Middlewares/ST/STM32_USB_Host_Library/Core/Src/usbh_ctlreq.c ****   * @param  buf: Buffer where the source descriptor is available
 343:Middlewares/ST/STM32_USB_Host_Library/Core/Src/usbh_ctlreq.c ****   * @param  length: Length of the descriptor
 344:Middlewares/ST/STM32_USB_Host_Library/Core/Src/usbh_ctlreq.c ****   * @retval None
 345:Middlewares/ST/STM32_USB_Host_Library/Core/Src/usbh_ctlreq.c ****   */
 346:Middlewares/ST/STM32_USB_Host_Library/Core/Src/usbh_ctlreq.c **** static void  USBH_ParseDevDesc (USBH_DevDescTypeDef* dev_desc, uint8_t *buf,
 347:Middlewares/ST/STM32_USB_Host_Library/Core/Src/usbh_ctlreq.c ****                                 uint16_t length)
 348:Middlewares/ST/STM32_USB_Host_Library/Core/Src/usbh_ctlreq.c **** {
  29              		.loc 1 348 1 view -0
  30              		.cfi_startproc
  31              		@ args = 0, pretend = 0, frame = 0
  32              		@ frame_needed = 0, uses_anonymous_args = 0
  33              		@ link register save eliminated.
  34              		.loc 1 348 1 is_stmt 0 view .LVU1
  35 0000 10B4     		push	{r4}
  36              	.LCFI0:
  37              		.cfi_def_cfa_offset 4
  38              		.cfi_offset 4, -4
 349:Middlewares/ST/STM32_USB_Host_Library/Core/Src/usbh_ctlreq.c ****   dev_desc->bLength            = *(uint8_t  *) (buf +  0);
  39              		.loc 1 349 3 is_stmt 1 view .LVU2
  40              		.loc 1 349 34 is_stmt 0 view .LVU3
  41 0002 0B78     		ldrb	r3, [r1]	@ zero_extendqisi2
  42              		.loc 1 349 32 view .LVU4
  43 0004 0370     		strb	r3, [r0]
 350:Middlewares/ST/STM32_USB_Host_Library/Core/Src/usbh_ctlreq.c ****   dev_desc->bDescriptorType    = *(uint8_t  *) (buf +  1);
  44              		.loc 1 350 3 is_stmt 1 view .LVU5
  45              		.loc 1 350 32 is_stmt 0 view .LVU6
  46 0006 4B78     		ldrb	r3, [r1, #1]	@ zero_extendqisi2
  47 0008 4370     		strb	r3, [r0, #1]
 351:Middlewares/ST/STM32_USB_Host_Library/Core/Src/usbh_ctlreq.c ****   dev_desc->bcdUSB             = LE16 (buf +  2);
  48              		.loc 1 351 3 is_stmt 1 view .LVU7
  49              		.loc 1 351 34 is_stmt 0 view .LVU8
ARM GAS  /tmp/ccntKEh2.s 			page 8


  50 000a 8B78     		ldrb	r3, [r1, #2]	@ zero_extendqisi2
  51 000c CC78     		ldrb	r4, [r1, #3]	@ zero_extendqisi2
  52 000e 43EA0423 		orr	r3, r3, r4, lsl #8
  53              		.loc 1 351 32 view .LVU9
  54 0012 4380     		strh	r3, [r0, #2]	@ movhi
 352:Middlewares/ST/STM32_USB_Host_Library/Core/Src/usbh_ctlreq.c ****   dev_desc->bDeviceClass       = *(uint8_t  *) (buf +  4);
  55              		.loc 1 352 3 is_stmt 1 view .LVU10
  56              		.loc 1 352 32 is_stmt 0 view .LVU11
  57 0014 0B79     		ldrb	r3, [r1, #4]	@ zero_extendqisi2
  58 0016 0371     		strb	r3, [r0, #4]
 353:Middlewares/ST/STM32_USB_Host_Library/Core/Src/usbh_ctlreq.c ****   dev_desc->bDeviceSubClass    = *(uint8_t  *) (buf +  5);
  59              		.loc 1 353 3 is_stmt 1 view .LVU12
  60              		.loc 1 353 32 is_stmt 0 view .LVU13
  61 0018 4B79     		ldrb	r3, [r1, #5]	@ zero_extendqisi2
  62 001a 4371     		strb	r3, [r0, #5]
 354:Middlewares/ST/STM32_USB_Host_Library/Core/Src/usbh_ctlreq.c ****   dev_desc->bDeviceProtocol    = *(uint8_t  *) (buf +  6);
  63              		.loc 1 354 3 is_stmt 1 view .LVU14
  64              		.loc 1 354 32 is_stmt 0 view .LVU15
  65 001c 8B79     		ldrb	r3, [r1, #6]	@ zero_extendqisi2
  66 001e 8371     		strb	r3, [r0, #6]
 355:Middlewares/ST/STM32_USB_Host_Library/Core/Src/usbh_ctlreq.c ****   dev_desc->bMaxPacketSize     = *(uint8_t  *) (buf +  7);
  67              		.loc 1 355 3 is_stmt 1 view .LVU16
  68              		.loc 1 355 32 is_stmt 0 view .LVU17
  69 0020 CB79     		ldrb	r3, [r1, #7]	@ zero_extendqisi2
  70 0022 C371     		strb	r3, [r0, #7]
 356:Middlewares/ST/STM32_USB_Host_Library/Core/Src/usbh_ctlreq.c **** 
 357:Middlewares/ST/STM32_USB_Host_Library/Core/Src/usbh_ctlreq.c ****   if (length > 8U)
  71              		.loc 1 357 3 is_stmt 1 view .LVU18
  72              		.loc 1 357 6 is_stmt 0 view .LVU19
  73 0024 082A     		cmp	r2, #8
  74 0026 16D9     		bls	.L1
 358:Middlewares/ST/STM32_USB_Host_Library/Core/Src/usbh_ctlreq.c ****   { /* For 1st time after device connection, Host may issue only 8 bytes for
 359:Middlewares/ST/STM32_USB_Host_Library/Core/Src/usbh_ctlreq.c ****     Device Descriptor Length  */
 360:Middlewares/ST/STM32_USB_Host_Library/Core/Src/usbh_ctlreq.c ****     dev_desc->idVendor           = LE16 (buf +  8);
  75              		.loc 1 360 5 is_stmt 1 view .LVU20
  76              		.loc 1 360 36 is_stmt 0 view .LVU21
  77 0028 0B7A     		ldrb	r3, [r1, #8]	@ zero_extendqisi2
  78 002a 4A7A     		ldrb	r2, [r1, #9]	@ zero_extendqisi2
  79              	.LVL1:
  80              		.loc 1 360 36 view .LVU22
  81 002c 43EA0223 		orr	r3, r3, r2, lsl #8
  82              		.loc 1 360 34 view .LVU23
  83 0030 0381     		strh	r3, [r0, #8]	@ movhi
 361:Middlewares/ST/STM32_USB_Host_Library/Core/Src/usbh_ctlreq.c ****     dev_desc->idProduct          = LE16 (buf + 10);
  84              		.loc 1 361 5 is_stmt 1 view .LVU24
  85              		.loc 1 361 36 is_stmt 0 view .LVU25
  86 0032 8B7A     		ldrb	r3, [r1, #10]	@ zero_extendqisi2
  87 0034 CA7A     		ldrb	r2, [r1, #11]	@ zero_extendqisi2
  88 0036 43EA0223 		orr	r3, r3, r2, lsl #8
  89              		.loc 1 361 34 view .LVU26
  90 003a 4381     		strh	r3, [r0, #10]	@ movhi
 362:Middlewares/ST/STM32_USB_Host_Library/Core/Src/usbh_ctlreq.c ****     dev_desc->bcdDevice          = LE16 (buf + 12);
  91              		.loc 1 362 5 is_stmt 1 view .LVU27
  92              		.loc 1 362 36 is_stmt 0 view .LVU28
  93 003c 0B7B     		ldrb	r3, [r1, #12]	@ zero_extendqisi2
  94 003e 4A7B     		ldrb	r2, [r1, #13]	@ zero_extendqisi2
  95 0040 43EA0223 		orr	r3, r3, r2, lsl #8
ARM GAS  /tmp/ccntKEh2.s 			page 9


  96              		.loc 1 362 34 view .LVU29
  97 0044 8381     		strh	r3, [r0, #12]	@ movhi
 363:Middlewares/ST/STM32_USB_Host_Library/Core/Src/usbh_ctlreq.c ****     dev_desc->iManufacturer      = *(uint8_t  *) (buf + 14);
  98              		.loc 1 363 5 is_stmt 1 view .LVU30
  99              		.loc 1 363 34 is_stmt 0 view .LVU31
 100 0046 8B7B     		ldrb	r3, [r1, #14]	@ zero_extendqisi2
 101 0048 8373     		strb	r3, [r0, #14]
 364:Middlewares/ST/STM32_USB_Host_Library/Core/Src/usbh_ctlreq.c ****     dev_desc->iProduct           = *(uint8_t  *) (buf + 15);
 102              		.loc 1 364 5 is_stmt 1 view .LVU32
 103              		.loc 1 364 34 is_stmt 0 view .LVU33
 104 004a CB7B     		ldrb	r3, [r1, #15]	@ zero_extendqisi2
 105 004c C373     		strb	r3, [r0, #15]
 365:Middlewares/ST/STM32_USB_Host_Library/Core/Src/usbh_ctlreq.c ****     dev_desc->iSerialNumber      = *(uint8_t  *) (buf + 16);
 106              		.loc 1 365 5 is_stmt 1 view .LVU34
 107              		.loc 1 365 34 is_stmt 0 view .LVU35
 108 004e 0B7C     		ldrb	r3, [r1, #16]	@ zero_extendqisi2
 109 0050 0374     		strb	r3, [r0, #16]
 366:Middlewares/ST/STM32_USB_Host_Library/Core/Src/usbh_ctlreq.c ****     dev_desc->bNumConfigurations = *(uint8_t  *) (buf + 17);
 110              		.loc 1 366 5 is_stmt 1 view .LVU36
 111              		.loc 1 366 34 is_stmt 0 view .LVU37
 112 0052 4B7C     		ldrb	r3, [r1, #17]	@ zero_extendqisi2
 113 0054 4374     		strb	r3, [r0, #17]
 114              	.L1:
 367:Middlewares/ST/STM32_USB_Host_Library/Core/Src/usbh_ctlreq.c ****   }
 368:Middlewares/ST/STM32_USB_Host_Library/Core/Src/usbh_ctlreq.c **** }
 115              		.loc 1 368 1 view .LVU38
 116 0056 5DF8044B 		ldr	r4, [sp], #4
 117              	.LCFI1:
 118              		.cfi_restore 4
 119              		.cfi_def_cfa_offset 0
 120 005a 7047     		bx	lr
 121              		.cfi_endproc
 122              	.LFE142:
 124              		.section	.text.USBH_ParseInterfaceDesc,"ax",%progbits
 125              		.align	1
 126              		.syntax unified
 127              		.thumb
 128              		.thumb_func
 129              		.fpu fpv4-sp-d16
 131              	USBH_ParseInterfaceDesc:
 132              	.LVL2:
 133              	.LFB144:
 369:Middlewares/ST/STM32_USB_Host_Library/Core/Src/usbh_ctlreq.c **** 
 370:Middlewares/ST/STM32_USB_Host_Library/Core/Src/usbh_ctlreq.c **** /**
 371:Middlewares/ST/STM32_USB_Host_Library/Core/Src/usbh_ctlreq.c ****   * @brief  USBH_ParseCfgDesc
 372:Middlewares/ST/STM32_USB_Host_Library/Core/Src/usbh_ctlreq.c ****   *         This function Parses the configuration descriptor
 373:Middlewares/ST/STM32_USB_Host_Library/Core/Src/usbh_ctlreq.c ****   * @param  cfg_desc: Configuration Descriptor address
 374:Middlewares/ST/STM32_USB_Host_Library/Core/Src/usbh_ctlreq.c ****   * @param  buf: Buffer where the source descriptor is available
 375:Middlewares/ST/STM32_USB_Host_Library/Core/Src/usbh_ctlreq.c ****   * @param  length: Length of the descriptor
 376:Middlewares/ST/STM32_USB_Host_Library/Core/Src/usbh_ctlreq.c ****   * @retval None
 377:Middlewares/ST/STM32_USB_Host_Library/Core/Src/usbh_ctlreq.c ****   */
 378:Middlewares/ST/STM32_USB_Host_Library/Core/Src/usbh_ctlreq.c **** static void USBH_ParseCfgDesc (USBH_CfgDescTypeDef* cfg_desc, uint8_t *buf,
 379:Middlewares/ST/STM32_USB_Host_Library/Core/Src/usbh_ctlreq.c ****                                uint16_t length)
 380:Middlewares/ST/STM32_USB_Host_Library/Core/Src/usbh_ctlreq.c **** {
 381:Middlewares/ST/STM32_USB_Host_Library/Core/Src/usbh_ctlreq.c ****   USBH_InterfaceDescTypeDef    *pif ;
 382:Middlewares/ST/STM32_USB_Host_Library/Core/Src/usbh_ctlreq.c ****   USBH_EpDescTypeDef           *pep;
 383:Middlewares/ST/STM32_USB_Host_Library/Core/Src/usbh_ctlreq.c ****   USBH_DescHeader_t            *pdesc = (USBH_DescHeader_t *)(void *)buf;
ARM GAS  /tmp/ccntKEh2.s 			page 10


 384:Middlewares/ST/STM32_USB_Host_Library/Core/Src/usbh_ctlreq.c ****   uint16_t                     ptr;
 385:Middlewares/ST/STM32_USB_Host_Library/Core/Src/usbh_ctlreq.c ****   uint8_t                      if_ix = 0U;
 386:Middlewares/ST/STM32_USB_Host_Library/Core/Src/usbh_ctlreq.c ****   uint8_t                      ep_ix = 0U;
 387:Middlewares/ST/STM32_USB_Host_Library/Core/Src/usbh_ctlreq.c **** 
 388:Middlewares/ST/STM32_USB_Host_Library/Core/Src/usbh_ctlreq.c ****   pdesc   = (USBH_DescHeader_t *)(void *)buf;
 389:Middlewares/ST/STM32_USB_Host_Library/Core/Src/usbh_ctlreq.c **** 
 390:Middlewares/ST/STM32_USB_Host_Library/Core/Src/usbh_ctlreq.c ****   /* Parse configuration descriptor */
 391:Middlewares/ST/STM32_USB_Host_Library/Core/Src/usbh_ctlreq.c ****   cfg_desc->bLength             = *(uint8_t  *) (buf + 0);
 392:Middlewares/ST/STM32_USB_Host_Library/Core/Src/usbh_ctlreq.c ****   cfg_desc->bDescriptorType     = *(uint8_t  *) (buf + 1);
 393:Middlewares/ST/STM32_USB_Host_Library/Core/Src/usbh_ctlreq.c ****   cfg_desc->wTotalLength        = LE16 (buf + 2);
 394:Middlewares/ST/STM32_USB_Host_Library/Core/Src/usbh_ctlreq.c ****   cfg_desc->bNumInterfaces      = *(uint8_t  *) (buf + 4);
 395:Middlewares/ST/STM32_USB_Host_Library/Core/Src/usbh_ctlreq.c ****   cfg_desc->bConfigurationValue = *(uint8_t  *) (buf + 5);
 396:Middlewares/ST/STM32_USB_Host_Library/Core/Src/usbh_ctlreq.c ****   cfg_desc->iConfiguration      = *(uint8_t  *) (buf + 6);
 397:Middlewares/ST/STM32_USB_Host_Library/Core/Src/usbh_ctlreq.c ****   cfg_desc->bmAttributes        = *(uint8_t  *) (buf + 7);
 398:Middlewares/ST/STM32_USB_Host_Library/Core/Src/usbh_ctlreq.c ****   cfg_desc->bMaxPower           = *(uint8_t  *) (buf + 8);
 399:Middlewares/ST/STM32_USB_Host_Library/Core/Src/usbh_ctlreq.c **** 
 400:Middlewares/ST/STM32_USB_Host_Library/Core/Src/usbh_ctlreq.c **** 
 401:Middlewares/ST/STM32_USB_Host_Library/Core/Src/usbh_ctlreq.c ****   if (length > USB_CONFIGURATION_DESC_SIZE)
 402:Middlewares/ST/STM32_USB_Host_Library/Core/Src/usbh_ctlreq.c ****   {
 403:Middlewares/ST/STM32_USB_Host_Library/Core/Src/usbh_ctlreq.c ****     ptr = USB_LEN_CFG_DESC;
 404:Middlewares/ST/STM32_USB_Host_Library/Core/Src/usbh_ctlreq.c ****     pif = (USBH_InterfaceDescTypeDef *)0;
 405:Middlewares/ST/STM32_USB_Host_Library/Core/Src/usbh_ctlreq.c **** 
 406:Middlewares/ST/STM32_USB_Host_Library/Core/Src/usbh_ctlreq.c **** 
 407:Middlewares/ST/STM32_USB_Host_Library/Core/Src/usbh_ctlreq.c ****     while ((if_ix < USBH_MAX_NUM_INTERFACES) && (ptr < cfg_desc->wTotalLength))
 408:Middlewares/ST/STM32_USB_Host_Library/Core/Src/usbh_ctlreq.c ****     {
 409:Middlewares/ST/STM32_USB_Host_Library/Core/Src/usbh_ctlreq.c ****       pdesc = USBH_GetNextDesc((uint8_t *)(void *)pdesc, &ptr);
 410:Middlewares/ST/STM32_USB_Host_Library/Core/Src/usbh_ctlreq.c ****       if (pdesc->bDescriptorType   == USB_DESC_TYPE_INTERFACE)
 411:Middlewares/ST/STM32_USB_Host_Library/Core/Src/usbh_ctlreq.c ****       {
 412:Middlewares/ST/STM32_USB_Host_Library/Core/Src/usbh_ctlreq.c ****         pif = &cfg_desc->Itf_Desc[if_ix];
 413:Middlewares/ST/STM32_USB_Host_Library/Core/Src/usbh_ctlreq.c ****         USBH_ParseInterfaceDesc (pif, (uint8_t *)(void *)pdesc);
 414:Middlewares/ST/STM32_USB_Host_Library/Core/Src/usbh_ctlreq.c **** 
 415:Middlewares/ST/STM32_USB_Host_Library/Core/Src/usbh_ctlreq.c ****         ep_ix = 0U;
 416:Middlewares/ST/STM32_USB_Host_Library/Core/Src/usbh_ctlreq.c ****         pep = (USBH_EpDescTypeDef *)0;
 417:Middlewares/ST/STM32_USB_Host_Library/Core/Src/usbh_ctlreq.c ****         while ((ep_ix < pif->bNumEndpoints) && (ptr < cfg_desc->wTotalLength))
 418:Middlewares/ST/STM32_USB_Host_Library/Core/Src/usbh_ctlreq.c ****         {
 419:Middlewares/ST/STM32_USB_Host_Library/Core/Src/usbh_ctlreq.c ****           pdesc = USBH_GetNextDesc((uint8_t*)(void *)pdesc, &ptr);
 420:Middlewares/ST/STM32_USB_Host_Library/Core/Src/usbh_ctlreq.c ****           if (pdesc->bDescriptorType   == USB_DESC_TYPE_ENDPOINT)
 421:Middlewares/ST/STM32_USB_Host_Library/Core/Src/usbh_ctlreq.c ****           {
 422:Middlewares/ST/STM32_USB_Host_Library/Core/Src/usbh_ctlreq.c ****             pep = &cfg_desc->Itf_Desc[if_ix].Ep_Desc[ep_ix];
 423:Middlewares/ST/STM32_USB_Host_Library/Core/Src/usbh_ctlreq.c ****             USBH_ParseEPDesc (pep, (uint8_t *)(void *)pdesc);
 424:Middlewares/ST/STM32_USB_Host_Library/Core/Src/usbh_ctlreq.c ****             ep_ix++;
 425:Middlewares/ST/STM32_USB_Host_Library/Core/Src/usbh_ctlreq.c ****           }
 426:Middlewares/ST/STM32_USB_Host_Library/Core/Src/usbh_ctlreq.c ****         }
 427:Middlewares/ST/STM32_USB_Host_Library/Core/Src/usbh_ctlreq.c ****         if_ix++;
 428:Middlewares/ST/STM32_USB_Host_Library/Core/Src/usbh_ctlreq.c ****       }
 429:Middlewares/ST/STM32_USB_Host_Library/Core/Src/usbh_ctlreq.c ****     }
 430:Middlewares/ST/STM32_USB_Host_Library/Core/Src/usbh_ctlreq.c ****   }
 431:Middlewares/ST/STM32_USB_Host_Library/Core/Src/usbh_ctlreq.c **** }
 432:Middlewares/ST/STM32_USB_Host_Library/Core/Src/usbh_ctlreq.c **** 
 433:Middlewares/ST/STM32_USB_Host_Library/Core/Src/usbh_ctlreq.c **** 
 434:Middlewares/ST/STM32_USB_Host_Library/Core/Src/usbh_ctlreq.c **** 
 435:Middlewares/ST/STM32_USB_Host_Library/Core/Src/usbh_ctlreq.c **** /**
 436:Middlewares/ST/STM32_USB_Host_Library/Core/Src/usbh_ctlreq.c ****   * @brief  USBH_ParseInterfaceDesc
 437:Middlewares/ST/STM32_USB_Host_Library/Core/Src/usbh_ctlreq.c ****   *         This function Parses the interface descriptor
 438:Middlewares/ST/STM32_USB_Host_Library/Core/Src/usbh_ctlreq.c ****   * @param  if_descriptor : Interface descriptor destination
 439:Middlewares/ST/STM32_USB_Host_Library/Core/Src/usbh_ctlreq.c ****   * @param  buf: Buffer where the descriptor data is available
 440:Middlewares/ST/STM32_USB_Host_Library/Core/Src/usbh_ctlreq.c ****   * @retval None
ARM GAS  /tmp/ccntKEh2.s 			page 11


 441:Middlewares/ST/STM32_USB_Host_Library/Core/Src/usbh_ctlreq.c ****   */
 442:Middlewares/ST/STM32_USB_Host_Library/Core/Src/usbh_ctlreq.c **** static void  USBH_ParseInterfaceDesc (USBH_InterfaceDescTypeDef *if_descriptor,
 443:Middlewares/ST/STM32_USB_Host_Library/Core/Src/usbh_ctlreq.c ****                                       uint8_t *buf)
 444:Middlewares/ST/STM32_USB_Host_Library/Core/Src/usbh_ctlreq.c **** {
 134              		.loc 1 444 1 is_stmt 1 view -0
 135              		.cfi_startproc
 136              		@ args = 0, pretend = 0, frame = 0
 137              		@ frame_needed = 0, uses_anonymous_args = 0
 138              		@ link register save eliminated.
 445:Middlewares/ST/STM32_USB_Host_Library/Core/Src/usbh_ctlreq.c ****   if_descriptor->bLength            = *(uint8_t  *) (buf + 0);
 139              		.loc 1 445 3 view .LVU40
 140              		.loc 1 445 39 is_stmt 0 view .LVU41
 141 0000 0B78     		ldrb	r3, [r1]	@ zero_extendqisi2
 142              		.loc 1 445 37 view .LVU42
 143 0002 0370     		strb	r3, [r0]
 446:Middlewares/ST/STM32_USB_Host_Library/Core/Src/usbh_ctlreq.c ****   if_descriptor->bDescriptorType    = *(uint8_t  *) (buf + 1);
 144              		.loc 1 446 3 is_stmt 1 view .LVU43
 145              		.loc 1 446 37 is_stmt 0 view .LVU44
 146 0004 4B78     		ldrb	r3, [r1, #1]	@ zero_extendqisi2
 147 0006 4370     		strb	r3, [r0, #1]
 447:Middlewares/ST/STM32_USB_Host_Library/Core/Src/usbh_ctlreq.c ****   if_descriptor->bInterfaceNumber   = *(uint8_t  *) (buf + 2);
 148              		.loc 1 447 3 is_stmt 1 view .LVU45
 149              		.loc 1 447 37 is_stmt 0 view .LVU46
 150 0008 8B78     		ldrb	r3, [r1, #2]	@ zero_extendqisi2
 151 000a 8370     		strb	r3, [r0, #2]
 448:Middlewares/ST/STM32_USB_Host_Library/Core/Src/usbh_ctlreq.c ****   if_descriptor->bAlternateSetting  = *(uint8_t  *) (buf + 3);
 152              		.loc 1 448 3 is_stmt 1 view .LVU47
 153              		.loc 1 448 37 is_stmt 0 view .LVU48
 154 000c CB78     		ldrb	r3, [r1, #3]	@ zero_extendqisi2
 155 000e C370     		strb	r3, [r0, #3]
 449:Middlewares/ST/STM32_USB_Host_Library/Core/Src/usbh_ctlreq.c ****   if_descriptor->bNumEndpoints      = *(uint8_t  *) (buf + 4);
 156              		.loc 1 449 3 is_stmt 1 view .LVU49
 157              		.loc 1 449 37 is_stmt 0 view .LVU50
 158 0010 0B79     		ldrb	r3, [r1, #4]	@ zero_extendqisi2
 159 0012 0371     		strb	r3, [r0, #4]
 450:Middlewares/ST/STM32_USB_Host_Library/Core/Src/usbh_ctlreq.c ****   if_descriptor->bInterfaceClass    = *(uint8_t  *) (buf + 5);
 160              		.loc 1 450 3 is_stmt 1 view .LVU51
 161              		.loc 1 450 37 is_stmt 0 view .LVU52
 162 0014 4B79     		ldrb	r3, [r1, #5]	@ zero_extendqisi2
 163 0016 4371     		strb	r3, [r0, #5]
 451:Middlewares/ST/STM32_USB_Host_Library/Core/Src/usbh_ctlreq.c ****   if_descriptor->bInterfaceSubClass = *(uint8_t  *) (buf + 6);
 164              		.loc 1 451 3 is_stmt 1 view .LVU53
 165              		.loc 1 451 37 is_stmt 0 view .LVU54
 166 0018 8B79     		ldrb	r3, [r1, #6]	@ zero_extendqisi2
 167 001a 8371     		strb	r3, [r0, #6]
 452:Middlewares/ST/STM32_USB_Host_Library/Core/Src/usbh_ctlreq.c ****   if_descriptor->bInterfaceProtocol = *(uint8_t  *) (buf + 7);
 168              		.loc 1 452 3 is_stmt 1 view .LVU55
 169              		.loc 1 452 37 is_stmt 0 view .LVU56
 170 001c CB79     		ldrb	r3, [r1, #7]	@ zero_extendqisi2
 171 001e C371     		strb	r3, [r0, #7]
 453:Middlewares/ST/STM32_USB_Host_Library/Core/Src/usbh_ctlreq.c ****   if_descriptor->iInterface         = *(uint8_t  *) (buf + 8);
 172              		.loc 1 453 3 is_stmt 1 view .LVU57
 173              		.loc 1 453 37 is_stmt 0 view .LVU58
 174 0020 0B7A     		ldrb	r3, [r1, #8]	@ zero_extendqisi2
 175 0022 0372     		strb	r3, [r0, #8]
 454:Middlewares/ST/STM32_USB_Host_Library/Core/Src/usbh_ctlreq.c **** }
 176              		.loc 1 454 1 view .LVU59
ARM GAS  /tmp/ccntKEh2.s 			page 12


 177 0024 7047     		bx	lr
 178              		.cfi_endproc
 179              	.LFE144:
 181              		.section	.text.USBH_ParseEPDesc,"ax",%progbits
 182              		.align	1
 183              		.syntax unified
 184              		.thumb
 185              		.thumb_func
 186              		.fpu fpv4-sp-d16
 188              	USBH_ParseEPDesc:
 189              	.LVL3:
 190              	.LFB145:
 455:Middlewares/ST/STM32_USB_Host_Library/Core/Src/usbh_ctlreq.c **** 
 456:Middlewares/ST/STM32_USB_Host_Library/Core/Src/usbh_ctlreq.c **** /**
 457:Middlewares/ST/STM32_USB_Host_Library/Core/Src/usbh_ctlreq.c ****   * @brief  USBH_ParseEPDesc
 458:Middlewares/ST/STM32_USB_Host_Library/Core/Src/usbh_ctlreq.c ****   *         This function Parses the endpoint descriptor
 459:Middlewares/ST/STM32_USB_Host_Library/Core/Src/usbh_ctlreq.c ****   * @param  ep_descriptor: Endpoint descriptor destination address
 460:Middlewares/ST/STM32_USB_Host_Library/Core/Src/usbh_ctlreq.c ****   * @param  buf: Buffer where the parsed descriptor stored
 461:Middlewares/ST/STM32_USB_Host_Library/Core/Src/usbh_ctlreq.c ****   * @retval None
 462:Middlewares/ST/STM32_USB_Host_Library/Core/Src/usbh_ctlreq.c ****   */
 463:Middlewares/ST/STM32_USB_Host_Library/Core/Src/usbh_ctlreq.c **** static void  USBH_ParseEPDesc (USBH_EpDescTypeDef  *ep_descriptor,
 464:Middlewares/ST/STM32_USB_Host_Library/Core/Src/usbh_ctlreq.c ****                                uint8_t *buf)
 465:Middlewares/ST/STM32_USB_Host_Library/Core/Src/usbh_ctlreq.c **** {
 191              		.loc 1 465 1 is_stmt 1 view -0
 192              		.cfi_startproc
 193              		@ args = 0, pretend = 0, frame = 0
 194              		@ frame_needed = 0, uses_anonymous_args = 0
 195              		@ link register save eliminated.
 466:Middlewares/ST/STM32_USB_Host_Library/Core/Src/usbh_ctlreq.c **** 
 467:Middlewares/ST/STM32_USB_Host_Library/Core/Src/usbh_ctlreq.c ****   ep_descriptor->bLength          = *(uint8_t  *) (buf + 0);
 196              		.loc 1 467 3 view .LVU61
 197              		.loc 1 467 37 is_stmt 0 view .LVU62
 198 0000 0B78     		ldrb	r3, [r1]	@ zero_extendqisi2
 199              		.loc 1 467 35 view .LVU63
 200 0002 0370     		strb	r3, [r0]
 468:Middlewares/ST/STM32_USB_Host_Library/Core/Src/usbh_ctlreq.c ****   ep_descriptor->bDescriptorType  = *(uint8_t  *) (buf + 1);
 201              		.loc 1 468 3 is_stmt 1 view .LVU64
 202              		.loc 1 468 35 is_stmt 0 view .LVU65
 203 0004 4B78     		ldrb	r3, [r1, #1]	@ zero_extendqisi2
 204 0006 4370     		strb	r3, [r0, #1]
 469:Middlewares/ST/STM32_USB_Host_Library/Core/Src/usbh_ctlreq.c ****   ep_descriptor->bEndpointAddress = *(uint8_t  *) (buf + 2);
 205              		.loc 1 469 3 is_stmt 1 view .LVU66
 206              		.loc 1 469 35 is_stmt 0 view .LVU67
 207 0008 8B78     		ldrb	r3, [r1, #2]	@ zero_extendqisi2
 208 000a 8370     		strb	r3, [r0, #2]
 470:Middlewares/ST/STM32_USB_Host_Library/Core/Src/usbh_ctlreq.c ****   ep_descriptor->bmAttributes     = *(uint8_t  *) (buf + 3);
 209              		.loc 1 470 3 is_stmt 1 view .LVU68
 210              		.loc 1 470 35 is_stmt 0 view .LVU69
 211 000c CB78     		ldrb	r3, [r1, #3]	@ zero_extendqisi2
 212 000e C370     		strb	r3, [r0, #3]
 471:Middlewares/ST/STM32_USB_Host_Library/Core/Src/usbh_ctlreq.c ****   ep_descriptor->wMaxPacketSize   = LE16 (buf + 4);
 213              		.loc 1 471 3 is_stmt 1 view .LVU70
 214              		.loc 1 471 37 is_stmt 0 view .LVU71
 215 0010 0B79     		ldrb	r3, [r1, #4]	@ zero_extendqisi2
 216 0012 4A79     		ldrb	r2, [r1, #5]	@ zero_extendqisi2
 217 0014 43EA0223 		orr	r3, r3, r2, lsl #8
 218              		.loc 1 471 35 view .LVU72
ARM GAS  /tmp/ccntKEh2.s 			page 13


 219 0018 8380     		strh	r3, [r0, #4]	@ movhi
 472:Middlewares/ST/STM32_USB_Host_Library/Core/Src/usbh_ctlreq.c ****   ep_descriptor->bInterval        = *(uint8_t  *) (buf + 6);
 220              		.loc 1 472 3 is_stmt 1 view .LVU73
 221              		.loc 1 472 35 is_stmt 0 view .LVU74
 222 001a 8B79     		ldrb	r3, [r1, #6]	@ zero_extendqisi2
 223 001c 8371     		strb	r3, [r0, #6]
 473:Middlewares/ST/STM32_USB_Host_Library/Core/Src/usbh_ctlreq.c **** }
 224              		.loc 1 473 1 view .LVU75
 225 001e 7047     		bx	lr
 226              		.cfi_endproc
 227              	.LFE145:
 229              		.section	.text.USBH_ParseStringDesc,"ax",%progbits
 230              		.align	1
 231              		.syntax unified
 232              		.thumb
 233              		.thumb_func
 234              		.fpu fpv4-sp-d16
 236              	USBH_ParseStringDesc:
 237              	.LVL4:
 238              	.LFB146:
 474:Middlewares/ST/STM32_USB_Host_Library/Core/Src/usbh_ctlreq.c **** 
 475:Middlewares/ST/STM32_USB_Host_Library/Core/Src/usbh_ctlreq.c **** /**
 476:Middlewares/ST/STM32_USB_Host_Library/Core/Src/usbh_ctlreq.c ****   * @brief  USBH_ParseStringDesc
 477:Middlewares/ST/STM32_USB_Host_Library/Core/Src/usbh_ctlreq.c ****   *         This function Parses the string descriptor
 478:Middlewares/ST/STM32_USB_Host_Library/Core/Src/usbh_ctlreq.c ****   * @param  psrc: Source pointer containing the descriptor data
 479:Middlewares/ST/STM32_USB_Host_Library/Core/Src/usbh_ctlreq.c ****   * @param  pdest: Destination address pointer
 480:Middlewares/ST/STM32_USB_Host_Library/Core/Src/usbh_ctlreq.c ****   * @param  length: Length of the descriptor
 481:Middlewares/ST/STM32_USB_Host_Library/Core/Src/usbh_ctlreq.c ****   * @retval None
 482:Middlewares/ST/STM32_USB_Host_Library/Core/Src/usbh_ctlreq.c ****   */
 483:Middlewares/ST/STM32_USB_Host_Library/Core/Src/usbh_ctlreq.c **** static void USBH_ParseStringDesc (uint8_t* psrc, uint8_t* pdest, uint16_t length)
 484:Middlewares/ST/STM32_USB_Host_Library/Core/Src/usbh_ctlreq.c **** {
 239              		.loc 1 484 1 is_stmt 1 view -0
 240              		.cfi_startproc
 241              		@ args = 0, pretend = 0, frame = 0
 242              		@ frame_needed = 0, uses_anonymous_args = 0
 243              		@ link register save eliminated.
 485:Middlewares/ST/STM32_USB_Host_Library/Core/Src/usbh_ctlreq.c ****   uint16_t strlength;
 244              		.loc 1 485 3 view .LVU77
 486:Middlewares/ST/STM32_USB_Host_Library/Core/Src/usbh_ctlreq.c ****   uint16_t idx;
 245              		.loc 1 486 3 view .LVU78
 487:Middlewares/ST/STM32_USB_Host_Library/Core/Src/usbh_ctlreq.c **** 
 488:Middlewares/ST/STM32_USB_Host_Library/Core/Src/usbh_ctlreq.c ****   /* The UNICODE string descriptor is not NULL-terminated. The string length is
 489:Middlewares/ST/STM32_USB_Host_Library/Core/Src/usbh_ctlreq.c ****   computed by substracting two from the value of the first byte of the descriptor.
 490:Middlewares/ST/STM32_USB_Host_Library/Core/Src/usbh_ctlreq.c ****   */
 491:Middlewares/ST/STM32_USB_Host_Library/Core/Src/usbh_ctlreq.c **** 
 492:Middlewares/ST/STM32_USB_Host_Library/Core/Src/usbh_ctlreq.c ****   /* Check which is lower size, the Size of string or the length of bytes read
 493:Middlewares/ST/STM32_USB_Host_Library/Core/Src/usbh_ctlreq.c ****   from the device */
 494:Middlewares/ST/STM32_USB_Host_Library/Core/Src/usbh_ctlreq.c **** 
 495:Middlewares/ST/STM32_USB_Host_Library/Core/Src/usbh_ctlreq.c ****   if (psrc[1] == USB_DESC_TYPE_STRING)
 246              		.loc 1 495 3 view .LVU79
 247              		.loc 1 495 11 is_stmt 0 view .LVU80
 248 0000 4378     		ldrb	r3, [r0, #1]	@ zero_extendqisi2
 249              		.loc 1 495 6 view .LVU81
 250 0002 032B     		cmp	r3, #3
 251 0004 00D0     		beq	.L16
 252 0006 7047     		bx	lr
 253              	.L16:
ARM GAS  /tmp/ccntKEh2.s 			page 14


 496:Middlewares/ST/STM32_USB_Host_Library/Core/Src/usbh_ctlreq.c ****   {
 497:Middlewares/ST/STM32_USB_Host_Library/Core/Src/usbh_ctlreq.c ****     /* Make sure the Descriptor is String Type */
 498:Middlewares/ST/STM32_USB_Host_Library/Core/Src/usbh_ctlreq.c **** 
 499:Middlewares/ST/STM32_USB_Host_Library/Core/Src/usbh_ctlreq.c ****     /* psrc[0] contains Size of Descriptor, subtract 2 to get the length of string */
 500:Middlewares/ST/STM32_USB_Host_Library/Core/Src/usbh_ctlreq.c ****     strlength = ((((uint16_t)psrc[0] - 2U) <= length) ? ((uint16_t)psrc[0] - 2U) : length);
 254              		.loc 1 500 5 is_stmt 1 view .LVU82
 255              		.loc 1 500 34 is_stmt 0 view .LVU83
 256 0008 0378     		ldrb	r3, [r0]	@ zero_extendqisi2
 257              		.loc 1 500 38 view .LVU84
 258 000a 023B     		subs	r3, r3, #2
 259              		.loc 1 500 82 view .LVU85
 260 000c 9A42     		cmp	r2, r3
 261 000e 28BF     		it	cs
 262 0010 1A46     		movcs	r2, r3
 263              	.LVL5:
 264              		.loc 1 500 15 view .LVU86
 265 0012 92B2     		uxth	r2, r2
 266              	.LVL6:
 501:Middlewares/ST/STM32_USB_Host_Library/Core/Src/usbh_ctlreq.c **** 
 502:Middlewares/ST/STM32_USB_Host_Library/Core/Src/usbh_ctlreq.c ****     /* Adjust the offset ignoring the String Len and Descriptor type */
 503:Middlewares/ST/STM32_USB_Host_Library/Core/Src/usbh_ctlreq.c ****     psrc += 2U;
 267              		.loc 1 503 5 is_stmt 1 view .LVU87
 504:Middlewares/ST/STM32_USB_Host_Library/Core/Src/usbh_ctlreq.c **** 
 505:Middlewares/ST/STM32_USB_Host_Library/Core/Src/usbh_ctlreq.c ****     for (idx = 0U; idx < strlength; idx += 2U)
 268              		.loc 1 505 5 view .LVU88
 269              		.loc 1 505 14 is_stmt 0 view .LVU89
 270 0014 0023     		movs	r3, #0
 271              	.LVL7:
 272              		.loc 1 505 20 is_stmt 1 view .LVU90
 273              		.loc 1 505 5 is_stmt 0 view .LVU91
 274 0016 9342     		cmp	r3, r2
 275 0018 0DD2     		bcs	.L17
 484:Middlewares/ST/STM32_USB_Host_Library/Core/Src/usbh_ctlreq.c ****   uint16_t strlength;
 276              		.loc 1 484 1 view .LVU92
 277 001a 10B4     		push	{r4}
 278              	.LCFI2:
 279              		.cfi_def_cfa_offset 4
 280              		.cfi_offset 4, -4
 281              	.L9:
 506:Middlewares/ST/STM32_USB_Host_Library/Core/Src/usbh_ctlreq.c ****     {
 507:Middlewares/ST/STM32_USB_Host_Library/Core/Src/usbh_ctlreq.c ****       /* Copy Only the string and ignore the UNICODE ID, hence add the src */
 508:Middlewares/ST/STM32_USB_Host_Library/Core/Src/usbh_ctlreq.c ****       *pdest =  psrc[idx];
 282              		.loc 1 508 7 is_stmt 1 discriminator 3 view .LVU93
 283              		.loc 1 508 21 is_stmt 0 discriminator 3 view .LVU94
 284 001c C418     		adds	r4, r0, r3
 285 001e A478     		ldrb	r4, [r4, #2]	@ zero_extendqisi2
 286              		.loc 1 508 14 discriminator 3 view .LVU95
 287 0020 01F8014B 		strb	r4, [r1], #1
 288              	.LVL8:
 509:Middlewares/ST/STM32_USB_Host_Library/Core/Src/usbh_ctlreq.c ****       pdest++;
 289              		.loc 1 509 7 is_stmt 1 discriminator 3 view .LVU96
 505:Middlewares/ST/STM32_USB_Host_Library/Core/Src/usbh_ctlreq.c ****     {
 290              		.loc 1 505 37 discriminator 3 view .LVU97
 505:Middlewares/ST/STM32_USB_Host_Library/Core/Src/usbh_ctlreq.c ****     {
 291              		.loc 1 505 41 is_stmt 0 discriminator 3 view .LVU98
 292 0024 0233     		adds	r3, r3, #2
 293              	.LVL9:
ARM GAS  /tmp/ccntKEh2.s 			page 15


 505:Middlewares/ST/STM32_USB_Host_Library/Core/Src/usbh_ctlreq.c ****     {
 294              		.loc 1 505 41 discriminator 3 view .LVU99
 295 0026 9BB2     		uxth	r3, r3
 296              	.LVL10:
 505:Middlewares/ST/STM32_USB_Host_Library/Core/Src/usbh_ctlreq.c ****     {
 297              		.loc 1 505 20 is_stmt 1 discriminator 3 view .LVU100
 505:Middlewares/ST/STM32_USB_Host_Library/Core/Src/usbh_ctlreq.c ****     {
 298              		.loc 1 505 5 is_stmt 0 discriminator 3 view .LVU101
 299 0028 9342     		cmp	r3, r2
 300 002a F7D3     		bcc	.L9
 510:Middlewares/ST/STM32_USB_Host_Library/Core/Src/usbh_ctlreq.c ****     }
 511:Middlewares/ST/STM32_USB_Host_Library/Core/Src/usbh_ctlreq.c ****     *pdest = 0U; /* mark end of string */
 301              		.loc 1 511 5 is_stmt 1 view .LVU102
 302              		.loc 1 511 12 is_stmt 0 view .LVU103
 303 002c 0023     		movs	r3, #0
 304              	.LVL11:
 305              		.loc 1 511 12 view .LVU104
 306 002e 0B70     		strb	r3, [r1]
 512:Middlewares/ST/STM32_USB_Host_Library/Core/Src/usbh_ctlreq.c ****   }
 513:Middlewares/ST/STM32_USB_Host_Library/Core/Src/usbh_ctlreq.c **** }
 307              		.loc 1 513 1 view .LVU105
 308 0030 5DF8044B 		ldr	r4, [sp], #4
 309              	.LCFI3:
 310              		.cfi_restore 4
 311              		.cfi_def_cfa_offset 0
 312 0034 7047     		bx	lr
 313              	.LVL12:
 314              	.L17:
 511:Middlewares/ST/STM32_USB_Host_Library/Core/Src/usbh_ctlreq.c ****   }
 315              		.loc 1 511 5 is_stmt 1 view .LVU106
 511:Middlewares/ST/STM32_USB_Host_Library/Core/Src/usbh_ctlreq.c ****   }
 316              		.loc 1 511 12 is_stmt 0 view .LVU107
 317 0036 0023     		movs	r3, #0
 511:Middlewares/ST/STM32_USB_Host_Library/Core/Src/usbh_ctlreq.c ****   }
 318              		.loc 1 511 12 view .LVU108
 319 0038 0B70     		strb	r3, [r1]
 320 003a 7047     		bx	lr
 321              		.cfi_endproc
 322              	.LFE146:
 324              		.section	.text.USBH_HandleControl,"ax",%progbits
 325              		.align	1
 326              		.syntax unified
 327              		.thumb
 328              		.thumb_func
 329              		.fpu fpv4-sp-d16
 331              	USBH_HandleControl:
 332              	.LVL13:
 333              	.LFB149:
 514:Middlewares/ST/STM32_USB_Host_Library/Core/Src/usbh_ctlreq.c **** 
 515:Middlewares/ST/STM32_USB_Host_Library/Core/Src/usbh_ctlreq.c **** /**
 516:Middlewares/ST/STM32_USB_Host_Library/Core/Src/usbh_ctlreq.c ****   * @brief  USBH_GetNextDesc
 517:Middlewares/ST/STM32_USB_Host_Library/Core/Src/usbh_ctlreq.c ****   *         This function return the next descriptor header
 518:Middlewares/ST/STM32_USB_Host_Library/Core/Src/usbh_ctlreq.c ****   * @param  buf: Buffer where the cfg descriptor is available
 519:Middlewares/ST/STM32_USB_Host_Library/Core/Src/usbh_ctlreq.c ****   * @param  ptr: data pointer inside the cfg descriptor
 520:Middlewares/ST/STM32_USB_Host_Library/Core/Src/usbh_ctlreq.c ****   * @retval next header
 521:Middlewares/ST/STM32_USB_Host_Library/Core/Src/usbh_ctlreq.c ****   */
 522:Middlewares/ST/STM32_USB_Host_Library/Core/Src/usbh_ctlreq.c **** USBH_DescHeader_t  *USBH_GetNextDesc (uint8_t   *pbuf, uint16_t  *ptr)
ARM GAS  /tmp/ccntKEh2.s 			page 16


 523:Middlewares/ST/STM32_USB_Host_Library/Core/Src/usbh_ctlreq.c **** {
 524:Middlewares/ST/STM32_USB_Host_Library/Core/Src/usbh_ctlreq.c ****   USBH_DescHeader_t  *pnext;
 525:Middlewares/ST/STM32_USB_Host_Library/Core/Src/usbh_ctlreq.c **** 
 526:Middlewares/ST/STM32_USB_Host_Library/Core/Src/usbh_ctlreq.c ****   *ptr += ((USBH_DescHeader_t *)(void *)pbuf)->bLength;
 527:Middlewares/ST/STM32_USB_Host_Library/Core/Src/usbh_ctlreq.c ****   pnext = (USBH_DescHeader_t *)(void *)((uint8_t *)(void *)pbuf + \
 528:Middlewares/ST/STM32_USB_Host_Library/Core/Src/usbh_ctlreq.c ****          ((USBH_DescHeader_t *)(void *)pbuf)->bLength);
 529:Middlewares/ST/STM32_USB_Host_Library/Core/Src/usbh_ctlreq.c **** 
 530:Middlewares/ST/STM32_USB_Host_Library/Core/Src/usbh_ctlreq.c ****   return(pnext);
 531:Middlewares/ST/STM32_USB_Host_Library/Core/Src/usbh_ctlreq.c **** }
 532:Middlewares/ST/STM32_USB_Host_Library/Core/Src/usbh_ctlreq.c **** 
 533:Middlewares/ST/STM32_USB_Host_Library/Core/Src/usbh_ctlreq.c **** 
 534:Middlewares/ST/STM32_USB_Host_Library/Core/Src/usbh_ctlreq.c **** /**
 535:Middlewares/ST/STM32_USB_Host_Library/Core/Src/usbh_ctlreq.c ****   * @brief  USBH_CtlReq
 536:Middlewares/ST/STM32_USB_Host_Library/Core/Src/usbh_ctlreq.c ****   *         USBH_CtlReq sends a control request and provide the status after
 537:Middlewares/ST/STM32_USB_Host_Library/Core/Src/usbh_ctlreq.c ****   *            completion of the request
 538:Middlewares/ST/STM32_USB_Host_Library/Core/Src/usbh_ctlreq.c ****   * @param  phost: Host Handle
 539:Middlewares/ST/STM32_USB_Host_Library/Core/Src/usbh_ctlreq.c ****   * @param  req: Setup Request Structure
 540:Middlewares/ST/STM32_USB_Host_Library/Core/Src/usbh_ctlreq.c ****   * @param  buff: data buffer address to store the response
 541:Middlewares/ST/STM32_USB_Host_Library/Core/Src/usbh_ctlreq.c ****   * @param  length: length of the response
 542:Middlewares/ST/STM32_USB_Host_Library/Core/Src/usbh_ctlreq.c ****   * @retval USBH Status
 543:Middlewares/ST/STM32_USB_Host_Library/Core/Src/usbh_ctlreq.c ****   */
 544:Middlewares/ST/STM32_USB_Host_Library/Core/Src/usbh_ctlreq.c **** USBH_StatusTypeDef USBH_CtlReq     (USBH_HandleTypeDef *phost,
 545:Middlewares/ST/STM32_USB_Host_Library/Core/Src/usbh_ctlreq.c ****                              uint8_t             *buff,
 546:Middlewares/ST/STM32_USB_Host_Library/Core/Src/usbh_ctlreq.c ****                              uint16_t            length)
 547:Middlewares/ST/STM32_USB_Host_Library/Core/Src/usbh_ctlreq.c **** {
 548:Middlewares/ST/STM32_USB_Host_Library/Core/Src/usbh_ctlreq.c ****   USBH_StatusTypeDef status;
 549:Middlewares/ST/STM32_USB_Host_Library/Core/Src/usbh_ctlreq.c ****   status = USBH_BUSY;
 550:Middlewares/ST/STM32_USB_Host_Library/Core/Src/usbh_ctlreq.c **** 
 551:Middlewares/ST/STM32_USB_Host_Library/Core/Src/usbh_ctlreq.c ****   switch (phost->RequestState)
 552:Middlewares/ST/STM32_USB_Host_Library/Core/Src/usbh_ctlreq.c ****   {
 553:Middlewares/ST/STM32_USB_Host_Library/Core/Src/usbh_ctlreq.c ****   case CMD_SEND:
 554:Middlewares/ST/STM32_USB_Host_Library/Core/Src/usbh_ctlreq.c ****     /* Start a SETUP transfer */
 555:Middlewares/ST/STM32_USB_Host_Library/Core/Src/usbh_ctlreq.c ****     phost->Control.buff = buff;
 556:Middlewares/ST/STM32_USB_Host_Library/Core/Src/usbh_ctlreq.c ****     phost->Control.length = length;
 557:Middlewares/ST/STM32_USB_Host_Library/Core/Src/usbh_ctlreq.c ****     phost->Control.state = CTRL_SETUP;
 558:Middlewares/ST/STM32_USB_Host_Library/Core/Src/usbh_ctlreq.c ****     phost->RequestState = CMD_WAIT;
 559:Middlewares/ST/STM32_USB_Host_Library/Core/Src/usbh_ctlreq.c ****     status = USBH_BUSY;
 560:Middlewares/ST/STM32_USB_Host_Library/Core/Src/usbh_ctlreq.c **** 
 561:Middlewares/ST/STM32_USB_Host_Library/Core/Src/usbh_ctlreq.c **** #if (USBH_USE_OS == 1U)
 562:Middlewares/ST/STM32_USB_Host_Library/Core/Src/usbh_ctlreq.c ****     phost->os_msg = (uint32_t)USBH_CONTROL_EVENT;
 563:Middlewares/ST/STM32_USB_Host_Library/Core/Src/usbh_ctlreq.c **** #if (osCMSIS < 0x20000U)
 564:Middlewares/ST/STM32_USB_Host_Library/Core/Src/usbh_ctlreq.c ****     (void)osMessagePut(phost->os_event, phost->os_msg, 0U);
 565:Middlewares/ST/STM32_USB_Host_Library/Core/Src/usbh_ctlreq.c **** #else
 566:Middlewares/ST/STM32_USB_Host_Library/Core/Src/usbh_ctlreq.c ****     (void)osMessageQueuePut(phost->os_event, &phost->os_msg, 0U, NULL);
 567:Middlewares/ST/STM32_USB_Host_Library/Core/Src/usbh_ctlreq.c **** #endif
 568:Middlewares/ST/STM32_USB_Host_Library/Core/Src/usbh_ctlreq.c **** #endif
 569:Middlewares/ST/STM32_USB_Host_Library/Core/Src/usbh_ctlreq.c ****     break;
 570:Middlewares/ST/STM32_USB_Host_Library/Core/Src/usbh_ctlreq.c **** 
 571:Middlewares/ST/STM32_USB_Host_Library/Core/Src/usbh_ctlreq.c ****   case CMD_WAIT:
 572:Middlewares/ST/STM32_USB_Host_Library/Core/Src/usbh_ctlreq.c ****     status = USBH_HandleControl(phost);
 573:Middlewares/ST/STM32_USB_Host_Library/Core/Src/usbh_ctlreq.c ****     if (status == USBH_OK)
 574:Middlewares/ST/STM32_USB_Host_Library/Core/Src/usbh_ctlreq.c ****     {
 575:Middlewares/ST/STM32_USB_Host_Library/Core/Src/usbh_ctlreq.c ****       /* Commands successfully sent and Response Received  */
 576:Middlewares/ST/STM32_USB_Host_Library/Core/Src/usbh_ctlreq.c ****       phost->RequestState = CMD_SEND;
 577:Middlewares/ST/STM32_USB_Host_Library/Core/Src/usbh_ctlreq.c ****       phost->Control.state =CTRL_IDLE;
 578:Middlewares/ST/STM32_USB_Host_Library/Core/Src/usbh_ctlreq.c ****       status = USBH_OK;
 579:Middlewares/ST/STM32_USB_Host_Library/Core/Src/usbh_ctlreq.c ****     }
ARM GAS  /tmp/ccntKEh2.s 			page 17


 580:Middlewares/ST/STM32_USB_Host_Library/Core/Src/usbh_ctlreq.c ****     else if (status == USBH_NOT_SUPPORTED)
 581:Middlewares/ST/STM32_USB_Host_Library/Core/Src/usbh_ctlreq.c ****     {
 582:Middlewares/ST/STM32_USB_Host_Library/Core/Src/usbh_ctlreq.c ****       /* Commands successfully sent and Response Received  */
 583:Middlewares/ST/STM32_USB_Host_Library/Core/Src/usbh_ctlreq.c ****       phost->RequestState = CMD_SEND;
 584:Middlewares/ST/STM32_USB_Host_Library/Core/Src/usbh_ctlreq.c ****       phost->Control.state = CTRL_IDLE;
 585:Middlewares/ST/STM32_USB_Host_Library/Core/Src/usbh_ctlreq.c ****       status = USBH_NOT_SUPPORTED;
 586:Middlewares/ST/STM32_USB_Host_Library/Core/Src/usbh_ctlreq.c ****     }
 587:Middlewares/ST/STM32_USB_Host_Library/Core/Src/usbh_ctlreq.c ****     else
 588:Middlewares/ST/STM32_USB_Host_Library/Core/Src/usbh_ctlreq.c ****     {
 589:Middlewares/ST/STM32_USB_Host_Library/Core/Src/usbh_ctlreq.c ****       if (status == USBH_FAIL)
 590:Middlewares/ST/STM32_USB_Host_Library/Core/Src/usbh_ctlreq.c ****       {
 591:Middlewares/ST/STM32_USB_Host_Library/Core/Src/usbh_ctlreq.c ****         /* Failure Mode */
 592:Middlewares/ST/STM32_USB_Host_Library/Core/Src/usbh_ctlreq.c ****         phost->RequestState = CMD_SEND;
 593:Middlewares/ST/STM32_USB_Host_Library/Core/Src/usbh_ctlreq.c ****         status = USBH_FAIL;
 594:Middlewares/ST/STM32_USB_Host_Library/Core/Src/usbh_ctlreq.c ****       }
 595:Middlewares/ST/STM32_USB_Host_Library/Core/Src/usbh_ctlreq.c ****     }
 596:Middlewares/ST/STM32_USB_Host_Library/Core/Src/usbh_ctlreq.c ****     break;
 597:Middlewares/ST/STM32_USB_Host_Library/Core/Src/usbh_ctlreq.c **** 
 598:Middlewares/ST/STM32_USB_Host_Library/Core/Src/usbh_ctlreq.c ****   default:
 599:Middlewares/ST/STM32_USB_Host_Library/Core/Src/usbh_ctlreq.c ****     break;
 600:Middlewares/ST/STM32_USB_Host_Library/Core/Src/usbh_ctlreq.c ****   }
 601:Middlewares/ST/STM32_USB_Host_Library/Core/Src/usbh_ctlreq.c ****   return status;
 602:Middlewares/ST/STM32_USB_Host_Library/Core/Src/usbh_ctlreq.c **** }
 603:Middlewares/ST/STM32_USB_Host_Library/Core/Src/usbh_ctlreq.c **** 
 604:Middlewares/ST/STM32_USB_Host_Library/Core/Src/usbh_ctlreq.c **** /**
 605:Middlewares/ST/STM32_USB_Host_Library/Core/Src/usbh_ctlreq.c ****   * @brief  USBH_HandleControl
 606:Middlewares/ST/STM32_USB_Host_Library/Core/Src/usbh_ctlreq.c ****   *         Handles the USB control transfer state machine
 607:Middlewares/ST/STM32_USB_Host_Library/Core/Src/usbh_ctlreq.c ****   * @param  phost: Host Handle
 608:Middlewares/ST/STM32_USB_Host_Library/Core/Src/usbh_ctlreq.c ****   * @retval USBH Status
 609:Middlewares/ST/STM32_USB_Host_Library/Core/Src/usbh_ctlreq.c ****   */
 610:Middlewares/ST/STM32_USB_Host_Library/Core/Src/usbh_ctlreq.c **** static USBH_StatusTypeDef USBH_HandleControl (USBH_HandleTypeDef *phost)
 611:Middlewares/ST/STM32_USB_Host_Library/Core/Src/usbh_ctlreq.c **** {
 334              		.loc 1 611 1 is_stmt 1 view -0
 335              		.cfi_startproc
 336              		@ args = 0, pretend = 0, frame = 0
 337              		@ frame_needed = 0, uses_anonymous_args = 0
 338              		.loc 1 611 1 is_stmt 0 view .LVU110
 339 0000 30B5     		push	{r4, r5, lr}
 340              	.LCFI4:
 341              		.cfi_def_cfa_offset 12
 342              		.cfi_offset 4, -12
 343              		.cfi_offset 5, -8
 344              		.cfi_offset 14, -4
 345 0002 83B0     		sub	sp, sp, #12
 346              	.LCFI5:
 347              		.cfi_def_cfa_offset 24
 348 0004 0446     		mov	r4, r0
 612:Middlewares/ST/STM32_USB_Host_Library/Core/Src/usbh_ctlreq.c ****   uint8_t direction;
 349              		.loc 1 612 3 is_stmt 1 view .LVU111
 613:Middlewares/ST/STM32_USB_Host_Library/Core/Src/usbh_ctlreq.c ****   USBH_StatusTypeDef status = USBH_BUSY;
 350              		.loc 1 613 3 view .LVU112
 351              	.LVL14:
 614:Middlewares/ST/STM32_USB_Host_Library/Core/Src/usbh_ctlreq.c ****   USBH_URBStateTypeDef URB_Status = USBH_URB_IDLE;
 352              		.loc 1 614 3 view .LVU113
 615:Middlewares/ST/STM32_USB_Host_Library/Core/Src/usbh_ctlreq.c **** 
 616:Middlewares/ST/STM32_USB_Host_Library/Core/Src/usbh_ctlreq.c ****   switch (phost->Control.state)
 353              		.loc 1 616 3 view .LVU114
ARM GAS  /tmp/ccntKEh2.s 			page 18


 354              		.loc 1 616 25 is_stmt 0 view .LVU115
 355 0006 057E     		ldrb	r5, [r0, #24]	@ zero_extendqisi2
 356 0008 6B1E     		subs	r3, r5, #1
 357 000a 0A2B     		cmp	r3, #10
 358 000c 00F2D780 		bhi	.L46
 359 0010 DFE803F0 		tbb	[pc, r3]
 360              	.L21:
 361 0014 06       		.byte	(.L31-.L21)/2
 362 0015 10       		.byte	(.L30-.L21)/2
 363 0016 35       		.byte	(.L29-.L21)/2
 364 0017 41       		.byte	(.L28-.L21)/2
 365 0018 54       		.byte	(.L27-.L21)/2
 366 0019 61       		.byte	(.L26-.L21)/2
 367 001a 7E       		.byte	(.L25-.L21)/2
 368 001b 8A       		.byte	(.L24-.L21)/2
 369 001c 9D       		.byte	(.L23-.L21)/2
 370 001d AA       		.byte	(.L22-.L21)/2
 371 001e C1       		.byte	(.L20-.L21)/2
 372 001f 00       		.p2align 1
 373              	.L31:
 617:Middlewares/ST/STM32_USB_Host_Library/Core/Src/usbh_ctlreq.c ****   {
 618:Middlewares/ST/STM32_USB_Host_Library/Core/Src/usbh_ctlreq.c ****   case CTRL_SETUP:
 619:Middlewares/ST/STM32_USB_Host_Library/Core/Src/usbh_ctlreq.c ****     /* send a SETUP packet */
 620:Middlewares/ST/STM32_USB_Host_Library/Core/Src/usbh_ctlreq.c ****     USBH_CtlSendSetup (phost, (uint8_t *)(void *)phost->Control.setup.d8,
 374              		.loc 1 620 5 is_stmt 1 view .LVU116
 375 0020 4279     		ldrb	r2, [r0, #5]	@ zero_extendqisi2
 376 0022 00F11001 		add	r1, r0, #16
 377 0026 FFF7FEFF 		bl	USBH_CtlSendSetup
 378              	.LVL15:
 621:Middlewares/ST/STM32_USB_Host_Library/Core/Src/usbh_ctlreq.c **** 	                     phost->Control.pipe_out);
 622:Middlewares/ST/STM32_USB_Host_Library/Core/Src/usbh_ctlreq.c **** 
 623:Middlewares/ST/STM32_USB_Host_Library/Core/Src/usbh_ctlreq.c ****     phost->Control.state = CTRL_SETUP_WAIT;
 379              		.loc 1 623 5 view .LVU117
 380              		.loc 1 623 26 is_stmt 0 view .LVU118
 381 002a 0223     		movs	r3, #2
 382 002c 2376     		strb	r3, [r4, #24]
 624:Middlewares/ST/STM32_USB_Host_Library/Core/Src/usbh_ctlreq.c ****     break;
 383              		.loc 1 624 5 is_stmt 1 view .LVU119
 384              	.LVL16:
 385              	.L19:
 625:Middlewares/ST/STM32_USB_Host_Library/Core/Src/usbh_ctlreq.c **** 
 626:Middlewares/ST/STM32_USB_Host_Library/Core/Src/usbh_ctlreq.c ****   case CTRL_SETUP_WAIT:
 627:Middlewares/ST/STM32_USB_Host_Library/Core/Src/usbh_ctlreq.c **** 
 628:Middlewares/ST/STM32_USB_Host_Library/Core/Src/usbh_ctlreq.c ****     URB_Status = USBH_LL_GetURBState(phost, phost->Control.pipe_out);
 629:Middlewares/ST/STM32_USB_Host_Library/Core/Src/usbh_ctlreq.c ****     /* case SETUP packet sent successfully */
 630:Middlewares/ST/STM32_USB_Host_Library/Core/Src/usbh_ctlreq.c ****     if(URB_Status == USBH_URB_DONE)
 631:Middlewares/ST/STM32_USB_Host_Library/Core/Src/usbh_ctlreq.c ****     {
 632:Middlewares/ST/STM32_USB_Host_Library/Core/Src/usbh_ctlreq.c ****       direction = (phost->Control.setup.b.bmRequestType & USB_REQ_DIR_MASK);
 633:Middlewares/ST/STM32_USB_Host_Library/Core/Src/usbh_ctlreq.c **** 
 634:Middlewares/ST/STM32_USB_Host_Library/Core/Src/usbh_ctlreq.c ****       /* check if there is a data stage */
 635:Middlewares/ST/STM32_USB_Host_Library/Core/Src/usbh_ctlreq.c ****       if (phost->Control.setup.b.wLength.w != 0U)
 636:Middlewares/ST/STM32_USB_Host_Library/Core/Src/usbh_ctlreq.c ****       {
 637:Middlewares/ST/STM32_USB_Host_Library/Core/Src/usbh_ctlreq.c ****         if (direction == USB_D2H)
 638:Middlewares/ST/STM32_USB_Host_Library/Core/Src/usbh_ctlreq.c ****         {
 639:Middlewares/ST/STM32_USB_Host_Library/Core/Src/usbh_ctlreq.c ****           /* Data Direction is IN */
 640:Middlewares/ST/STM32_USB_Host_Library/Core/Src/usbh_ctlreq.c ****           phost->Control.state = CTRL_DATA_IN;
 641:Middlewares/ST/STM32_USB_Host_Library/Core/Src/usbh_ctlreq.c ****         }
ARM GAS  /tmp/ccntKEh2.s 			page 19


 642:Middlewares/ST/STM32_USB_Host_Library/Core/Src/usbh_ctlreq.c ****         else
 643:Middlewares/ST/STM32_USB_Host_Library/Core/Src/usbh_ctlreq.c ****         {
 644:Middlewares/ST/STM32_USB_Host_Library/Core/Src/usbh_ctlreq.c ****           /* Data Direction is OUT */
 645:Middlewares/ST/STM32_USB_Host_Library/Core/Src/usbh_ctlreq.c ****           phost->Control.state = CTRL_DATA_OUT;
 646:Middlewares/ST/STM32_USB_Host_Library/Core/Src/usbh_ctlreq.c ****         }
 647:Middlewares/ST/STM32_USB_Host_Library/Core/Src/usbh_ctlreq.c ****       }
 648:Middlewares/ST/STM32_USB_Host_Library/Core/Src/usbh_ctlreq.c ****       /* No DATA stage */
 649:Middlewares/ST/STM32_USB_Host_Library/Core/Src/usbh_ctlreq.c ****       else
 650:Middlewares/ST/STM32_USB_Host_Library/Core/Src/usbh_ctlreq.c ****       {
 651:Middlewares/ST/STM32_USB_Host_Library/Core/Src/usbh_ctlreq.c ****         /* If there is No Data Transfer Stage */
 652:Middlewares/ST/STM32_USB_Host_Library/Core/Src/usbh_ctlreq.c ****         if (direction == USB_D2H)
 653:Middlewares/ST/STM32_USB_Host_Library/Core/Src/usbh_ctlreq.c ****         {
 654:Middlewares/ST/STM32_USB_Host_Library/Core/Src/usbh_ctlreq.c ****           /* Data Direction is IN */
 655:Middlewares/ST/STM32_USB_Host_Library/Core/Src/usbh_ctlreq.c ****           phost->Control.state = CTRL_STATUS_OUT;
 656:Middlewares/ST/STM32_USB_Host_Library/Core/Src/usbh_ctlreq.c ****         }
 657:Middlewares/ST/STM32_USB_Host_Library/Core/Src/usbh_ctlreq.c ****         else
 658:Middlewares/ST/STM32_USB_Host_Library/Core/Src/usbh_ctlreq.c ****         {
 659:Middlewares/ST/STM32_USB_Host_Library/Core/Src/usbh_ctlreq.c ****           /* Data Direction is OUT */
 660:Middlewares/ST/STM32_USB_Host_Library/Core/Src/usbh_ctlreq.c ****           phost->Control.state = CTRL_STATUS_IN;
 661:Middlewares/ST/STM32_USB_Host_Library/Core/Src/usbh_ctlreq.c ****         }
 662:Middlewares/ST/STM32_USB_Host_Library/Core/Src/usbh_ctlreq.c ****       }
 663:Middlewares/ST/STM32_USB_Host_Library/Core/Src/usbh_ctlreq.c **** 
 664:Middlewares/ST/STM32_USB_Host_Library/Core/Src/usbh_ctlreq.c **** #if (USBH_USE_OS == 1U)
 665:Middlewares/ST/STM32_USB_Host_Library/Core/Src/usbh_ctlreq.c ****       phost->os_msg = (uint32_t)USBH_CONTROL_EVENT;
 666:Middlewares/ST/STM32_USB_Host_Library/Core/Src/usbh_ctlreq.c **** #if (osCMSIS < 0x20000U)
 667:Middlewares/ST/STM32_USB_Host_Library/Core/Src/usbh_ctlreq.c ****       (void)osMessagePut(phost->os_event, phost->os_msg, 0U);
 668:Middlewares/ST/STM32_USB_Host_Library/Core/Src/usbh_ctlreq.c **** #else
 669:Middlewares/ST/STM32_USB_Host_Library/Core/Src/usbh_ctlreq.c ****       (void)osMessageQueuePut(phost->os_event, &phost->os_msg, 0U, NULL);
 670:Middlewares/ST/STM32_USB_Host_Library/Core/Src/usbh_ctlreq.c **** #endif
 671:Middlewares/ST/STM32_USB_Host_Library/Core/Src/usbh_ctlreq.c **** #endif
 672:Middlewares/ST/STM32_USB_Host_Library/Core/Src/usbh_ctlreq.c ****     }
 673:Middlewares/ST/STM32_USB_Host_Library/Core/Src/usbh_ctlreq.c ****     else
 674:Middlewares/ST/STM32_USB_Host_Library/Core/Src/usbh_ctlreq.c ****     {
 675:Middlewares/ST/STM32_USB_Host_Library/Core/Src/usbh_ctlreq.c ****       if((URB_Status == USBH_URB_ERROR) || (URB_Status == USBH_URB_NOTREADY))
 676:Middlewares/ST/STM32_USB_Host_Library/Core/Src/usbh_ctlreq.c ****       {
 677:Middlewares/ST/STM32_USB_Host_Library/Core/Src/usbh_ctlreq.c ****         phost->Control.state = CTRL_ERROR;
 678:Middlewares/ST/STM32_USB_Host_Library/Core/Src/usbh_ctlreq.c **** 
 679:Middlewares/ST/STM32_USB_Host_Library/Core/Src/usbh_ctlreq.c **** #if (USBH_USE_OS == 1U)
 680:Middlewares/ST/STM32_USB_Host_Library/Core/Src/usbh_ctlreq.c ****         phost->os_msg = (uint32_t)USBH_CONTROL_EVENT;
 681:Middlewares/ST/STM32_USB_Host_Library/Core/Src/usbh_ctlreq.c **** #if (osCMSIS < 0x20000U)
 682:Middlewares/ST/STM32_USB_Host_Library/Core/Src/usbh_ctlreq.c ****         (void)osMessagePut(phost->os_event, phost->os_msg, 0U);
 683:Middlewares/ST/STM32_USB_Host_Library/Core/Src/usbh_ctlreq.c **** #else
 684:Middlewares/ST/STM32_USB_Host_Library/Core/Src/usbh_ctlreq.c ****         (void)osMessageQueuePut(phost->os_event, &phost->os_msg, 0U, NULL);
 685:Middlewares/ST/STM32_USB_Host_Library/Core/Src/usbh_ctlreq.c **** #endif
 686:Middlewares/ST/STM32_USB_Host_Library/Core/Src/usbh_ctlreq.c **** #endif
 687:Middlewares/ST/STM32_USB_Host_Library/Core/Src/usbh_ctlreq.c ****       }
 688:Middlewares/ST/STM32_USB_Host_Library/Core/Src/usbh_ctlreq.c ****     }
 689:Middlewares/ST/STM32_USB_Host_Library/Core/Src/usbh_ctlreq.c ****     break;
 690:Middlewares/ST/STM32_USB_Host_Library/Core/Src/usbh_ctlreq.c **** 
 691:Middlewares/ST/STM32_USB_Host_Library/Core/Src/usbh_ctlreq.c ****   case CTRL_DATA_IN:
 692:Middlewares/ST/STM32_USB_Host_Library/Core/Src/usbh_ctlreq.c ****     /* Issue an IN token */
 693:Middlewares/ST/STM32_USB_Host_Library/Core/Src/usbh_ctlreq.c ****     phost->Control.timer = (uint16_t)phost->Timer;
 694:Middlewares/ST/STM32_USB_Host_Library/Core/Src/usbh_ctlreq.c ****     USBH_CtlReceiveData(phost,
 695:Middlewares/ST/STM32_USB_Host_Library/Core/Src/usbh_ctlreq.c ****                         phost->Control.buff,
 696:Middlewares/ST/STM32_USB_Host_Library/Core/Src/usbh_ctlreq.c ****                         phost->Control.length,
 697:Middlewares/ST/STM32_USB_Host_Library/Core/Src/usbh_ctlreq.c ****                         phost->Control.pipe_in);
 698:Middlewares/ST/STM32_USB_Host_Library/Core/Src/usbh_ctlreq.c **** 
ARM GAS  /tmp/ccntKEh2.s 			page 20


 699:Middlewares/ST/STM32_USB_Host_Library/Core/Src/usbh_ctlreq.c ****     phost->Control.state = CTRL_DATA_IN_WAIT;
 700:Middlewares/ST/STM32_USB_Host_Library/Core/Src/usbh_ctlreq.c ****     break;
 701:Middlewares/ST/STM32_USB_Host_Library/Core/Src/usbh_ctlreq.c **** 
 702:Middlewares/ST/STM32_USB_Host_Library/Core/Src/usbh_ctlreq.c ****   case CTRL_DATA_IN_WAIT:
 703:Middlewares/ST/STM32_USB_Host_Library/Core/Src/usbh_ctlreq.c **** 
 704:Middlewares/ST/STM32_USB_Host_Library/Core/Src/usbh_ctlreq.c ****     URB_Status = USBH_LL_GetURBState(phost , phost->Control.pipe_in);
 705:Middlewares/ST/STM32_USB_Host_Library/Core/Src/usbh_ctlreq.c **** 
 706:Middlewares/ST/STM32_USB_Host_Library/Core/Src/usbh_ctlreq.c ****     /* check is DATA packet transferred successfully */
 707:Middlewares/ST/STM32_USB_Host_Library/Core/Src/usbh_ctlreq.c ****     if  (URB_Status == USBH_URB_DONE)
 708:Middlewares/ST/STM32_USB_Host_Library/Core/Src/usbh_ctlreq.c ****     {
 709:Middlewares/ST/STM32_USB_Host_Library/Core/Src/usbh_ctlreq.c ****       phost->Control.state = CTRL_STATUS_OUT;
 710:Middlewares/ST/STM32_USB_Host_Library/Core/Src/usbh_ctlreq.c **** 
 711:Middlewares/ST/STM32_USB_Host_Library/Core/Src/usbh_ctlreq.c **** #if (USBH_USE_OS == 1U)
 712:Middlewares/ST/STM32_USB_Host_Library/Core/Src/usbh_ctlreq.c ****       phost->os_msg = (uint32_t)USBH_CONTROL_EVENT;
 713:Middlewares/ST/STM32_USB_Host_Library/Core/Src/usbh_ctlreq.c **** #if (osCMSIS < 0x20000U)
 714:Middlewares/ST/STM32_USB_Host_Library/Core/Src/usbh_ctlreq.c ****       (void)osMessagePut(phost->os_event, phost->os_msg, 0U);
 715:Middlewares/ST/STM32_USB_Host_Library/Core/Src/usbh_ctlreq.c **** #else
 716:Middlewares/ST/STM32_USB_Host_Library/Core/Src/usbh_ctlreq.c ****       (void)osMessageQueuePut(phost->os_event, &phost->os_msg, 0U, NULL);
 717:Middlewares/ST/STM32_USB_Host_Library/Core/Src/usbh_ctlreq.c **** #endif
 718:Middlewares/ST/STM32_USB_Host_Library/Core/Src/usbh_ctlreq.c **** #endif
 719:Middlewares/ST/STM32_USB_Host_Library/Core/Src/usbh_ctlreq.c ****     }
 720:Middlewares/ST/STM32_USB_Host_Library/Core/Src/usbh_ctlreq.c **** 
 721:Middlewares/ST/STM32_USB_Host_Library/Core/Src/usbh_ctlreq.c ****     /* manage error cases*/
 722:Middlewares/ST/STM32_USB_Host_Library/Core/Src/usbh_ctlreq.c ****     if  (URB_Status == USBH_URB_STALL)
 723:Middlewares/ST/STM32_USB_Host_Library/Core/Src/usbh_ctlreq.c ****     {
 724:Middlewares/ST/STM32_USB_Host_Library/Core/Src/usbh_ctlreq.c ****       /* In stall case, return to previous machine state*/
 725:Middlewares/ST/STM32_USB_Host_Library/Core/Src/usbh_ctlreq.c ****       status = USBH_NOT_SUPPORTED;
 726:Middlewares/ST/STM32_USB_Host_Library/Core/Src/usbh_ctlreq.c **** 
 727:Middlewares/ST/STM32_USB_Host_Library/Core/Src/usbh_ctlreq.c **** #if (USBH_USE_OS == 1U)
 728:Middlewares/ST/STM32_USB_Host_Library/Core/Src/usbh_ctlreq.c ****       phost->os_msg = (uint32_t)USBH_CONTROL_EVENT;
 729:Middlewares/ST/STM32_USB_Host_Library/Core/Src/usbh_ctlreq.c **** #if (osCMSIS < 0x20000U)
 730:Middlewares/ST/STM32_USB_Host_Library/Core/Src/usbh_ctlreq.c ****       (void)osMessagePut(phost->os_event, phost->os_msg, 0U);
 731:Middlewares/ST/STM32_USB_Host_Library/Core/Src/usbh_ctlreq.c **** #else
 732:Middlewares/ST/STM32_USB_Host_Library/Core/Src/usbh_ctlreq.c ****       (void)osMessageQueuePut(phost->os_event, &phost->os_msg, 0U, NULL);
 733:Middlewares/ST/STM32_USB_Host_Library/Core/Src/usbh_ctlreq.c **** #endif
 734:Middlewares/ST/STM32_USB_Host_Library/Core/Src/usbh_ctlreq.c **** #endif
 735:Middlewares/ST/STM32_USB_Host_Library/Core/Src/usbh_ctlreq.c ****     }
 736:Middlewares/ST/STM32_USB_Host_Library/Core/Src/usbh_ctlreq.c ****     else
 737:Middlewares/ST/STM32_USB_Host_Library/Core/Src/usbh_ctlreq.c ****     {
 738:Middlewares/ST/STM32_USB_Host_Library/Core/Src/usbh_ctlreq.c ****       if (URB_Status == USBH_URB_ERROR)
 739:Middlewares/ST/STM32_USB_Host_Library/Core/Src/usbh_ctlreq.c ****       {
 740:Middlewares/ST/STM32_USB_Host_Library/Core/Src/usbh_ctlreq.c ****         /* Device error */
 741:Middlewares/ST/STM32_USB_Host_Library/Core/Src/usbh_ctlreq.c ****         phost->Control.state = CTRL_ERROR;
 742:Middlewares/ST/STM32_USB_Host_Library/Core/Src/usbh_ctlreq.c **** 
 743:Middlewares/ST/STM32_USB_Host_Library/Core/Src/usbh_ctlreq.c **** #if (USBH_USE_OS == 1U)
 744:Middlewares/ST/STM32_USB_Host_Library/Core/Src/usbh_ctlreq.c ****         phost->os_msg = (uint32_t)USBH_CONTROL_EVENT;
 745:Middlewares/ST/STM32_USB_Host_Library/Core/Src/usbh_ctlreq.c **** #if (osCMSIS < 0x20000U)
 746:Middlewares/ST/STM32_USB_Host_Library/Core/Src/usbh_ctlreq.c ****         (void)osMessagePut(phost->os_event, phost->os_msg, 0U);
 747:Middlewares/ST/STM32_USB_Host_Library/Core/Src/usbh_ctlreq.c **** #else
 748:Middlewares/ST/STM32_USB_Host_Library/Core/Src/usbh_ctlreq.c ****         (void)osMessageQueuePut(phost->os_event, &phost->os_msg, 0U, NULL);
 749:Middlewares/ST/STM32_USB_Host_Library/Core/Src/usbh_ctlreq.c **** #endif
 750:Middlewares/ST/STM32_USB_Host_Library/Core/Src/usbh_ctlreq.c **** #endif
 751:Middlewares/ST/STM32_USB_Host_Library/Core/Src/usbh_ctlreq.c ****       }
 752:Middlewares/ST/STM32_USB_Host_Library/Core/Src/usbh_ctlreq.c ****     }
 753:Middlewares/ST/STM32_USB_Host_Library/Core/Src/usbh_ctlreq.c ****     break;
 754:Middlewares/ST/STM32_USB_Host_Library/Core/Src/usbh_ctlreq.c **** 
 755:Middlewares/ST/STM32_USB_Host_Library/Core/Src/usbh_ctlreq.c ****   case CTRL_DATA_OUT:
ARM GAS  /tmp/ccntKEh2.s 			page 21


 756:Middlewares/ST/STM32_USB_Host_Library/Core/Src/usbh_ctlreq.c **** 
 757:Middlewares/ST/STM32_USB_Host_Library/Core/Src/usbh_ctlreq.c ****     USBH_CtlSendData (phost,
 758:Middlewares/ST/STM32_USB_Host_Library/Core/Src/usbh_ctlreq.c ****                       phost->Control.buff,
 759:Middlewares/ST/STM32_USB_Host_Library/Core/Src/usbh_ctlreq.c ****                       phost->Control.length ,
 760:Middlewares/ST/STM32_USB_Host_Library/Core/Src/usbh_ctlreq.c ****                       phost->Control.pipe_out,
 761:Middlewares/ST/STM32_USB_Host_Library/Core/Src/usbh_ctlreq.c ****                       1U);
 762:Middlewares/ST/STM32_USB_Host_Library/Core/Src/usbh_ctlreq.c ****      phost->Control.timer = (uint16_t)phost->Timer;
 763:Middlewares/ST/STM32_USB_Host_Library/Core/Src/usbh_ctlreq.c ****     phost->Control.state = CTRL_DATA_OUT_WAIT;
 764:Middlewares/ST/STM32_USB_Host_Library/Core/Src/usbh_ctlreq.c ****     break;
 765:Middlewares/ST/STM32_USB_Host_Library/Core/Src/usbh_ctlreq.c **** 
 766:Middlewares/ST/STM32_USB_Host_Library/Core/Src/usbh_ctlreq.c ****   case CTRL_DATA_OUT_WAIT:
 767:Middlewares/ST/STM32_USB_Host_Library/Core/Src/usbh_ctlreq.c **** 
 768:Middlewares/ST/STM32_USB_Host_Library/Core/Src/usbh_ctlreq.c ****     URB_Status = USBH_LL_GetURBState(phost , phost->Control.pipe_out);
 769:Middlewares/ST/STM32_USB_Host_Library/Core/Src/usbh_ctlreq.c **** 
 770:Middlewares/ST/STM32_USB_Host_Library/Core/Src/usbh_ctlreq.c ****     if  (URB_Status == USBH_URB_DONE)
 771:Middlewares/ST/STM32_USB_Host_Library/Core/Src/usbh_ctlreq.c ****     { /* If the Setup Pkt is sent successful, then change the state */
 772:Middlewares/ST/STM32_USB_Host_Library/Core/Src/usbh_ctlreq.c ****       phost->Control.state = CTRL_STATUS_IN;
 773:Middlewares/ST/STM32_USB_Host_Library/Core/Src/usbh_ctlreq.c **** 
 774:Middlewares/ST/STM32_USB_Host_Library/Core/Src/usbh_ctlreq.c **** #if (USBH_USE_OS == 1U)
 775:Middlewares/ST/STM32_USB_Host_Library/Core/Src/usbh_ctlreq.c ****       phost->os_msg = (uint32_t)USBH_CONTROL_EVENT;
 776:Middlewares/ST/STM32_USB_Host_Library/Core/Src/usbh_ctlreq.c **** #if (osCMSIS < 0x20000U)
 777:Middlewares/ST/STM32_USB_Host_Library/Core/Src/usbh_ctlreq.c ****       (void)osMessagePut(phost->os_event, phost->os_msg, 0U);
 778:Middlewares/ST/STM32_USB_Host_Library/Core/Src/usbh_ctlreq.c **** #else
 779:Middlewares/ST/STM32_USB_Host_Library/Core/Src/usbh_ctlreq.c ****       (void)osMessageQueuePut(phost->os_event, &phost->os_msg, 0U, NULL);
 780:Middlewares/ST/STM32_USB_Host_Library/Core/Src/usbh_ctlreq.c **** #endif
 781:Middlewares/ST/STM32_USB_Host_Library/Core/Src/usbh_ctlreq.c **** #endif
 782:Middlewares/ST/STM32_USB_Host_Library/Core/Src/usbh_ctlreq.c ****     }
 783:Middlewares/ST/STM32_USB_Host_Library/Core/Src/usbh_ctlreq.c **** 
 784:Middlewares/ST/STM32_USB_Host_Library/Core/Src/usbh_ctlreq.c ****     /* handle error cases */
 785:Middlewares/ST/STM32_USB_Host_Library/Core/Src/usbh_ctlreq.c ****     else if  (URB_Status == USBH_URB_STALL)
 786:Middlewares/ST/STM32_USB_Host_Library/Core/Src/usbh_ctlreq.c ****     {
 787:Middlewares/ST/STM32_USB_Host_Library/Core/Src/usbh_ctlreq.c ****       /* In stall case, return to previous machine state*/
 788:Middlewares/ST/STM32_USB_Host_Library/Core/Src/usbh_ctlreq.c ****       phost->Control.state = CTRL_STALLED;
 789:Middlewares/ST/STM32_USB_Host_Library/Core/Src/usbh_ctlreq.c ****       status = USBH_NOT_SUPPORTED;
 790:Middlewares/ST/STM32_USB_Host_Library/Core/Src/usbh_ctlreq.c **** 
 791:Middlewares/ST/STM32_USB_Host_Library/Core/Src/usbh_ctlreq.c **** #if (USBH_USE_OS == 1U)
 792:Middlewares/ST/STM32_USB_Host_Library/Core/Src/usbh_ctlreq.c ****       phost->os_msg = (uint32_t)USBH_CONTROL_EVENT;
 793:Middlewares/ST/STM32_USB_Host_Library/Core/Src/usbh_ctlreq.c **** #if (osCMSIS < 0x20000U)
 794:Middlewares/ST/STM32_USB_Host_Library/Core/Src/usbh_ctlreq.c ****       (void)osMessagePut(phost->os_event, phost->os_msg, 0U);
 795:Middlewares/ST/STM32_USB_Host_Library/Core/Src/usbh_ctlreq.c **** #else
 796:Middlewares/ST/STM32_USB_Host_Library/Core/Src/usbh_ctlreq.c ****       (void)osMessageQueuePut(phost->os_event, &phost->os_msg, 0U, NULL);
 797:Middlewares/ST/STM32_USB_Host_Library/Core/Src/usbh_ctlreq.c **** #endif
 798:Middlewares/ST/STM32_USB_Host_Library/Core/Src/usbh_ctlreq.c **** #endif
 799:Middlewares/ST/STM32_USB_Host_Library/Core/Src/usbh_ctlreq.c ****     }
 800:Middlewares/ST/STM32_USB_Host_Library/Core/Src/usbh_ctlreq.c ****     else if  (URB_Status == USBH_URB_NOTREADY)
 801:Middlewares/ST/STM32_USB_Host_Library/Core/Src/usbh_ctlreq.c ****     {
 802:Middlewares/ST/STM32_USB_Host_Library/Core/Src/usbh_ctlreq.c ****       /* Nack received from device */
 803:Middlewares/ST/STM32_USB_Host_Library/Core/Src/usbh_ctlreq.c ****       phost->Control.state = CTRL_DATA_OUT;
 804:Middlewares/ST/STM32_USB_Host_Library/Core/Src/usbh_ctlreq.c **** 
 805:Middlewares/ST/STM32_USB_Host_Library/Core/Src/usbh_ctlreq.c **** #if (USBH_USE_OS == 1U)
 806:Middlewares/ST/STM32_USB_Host_Library/Core/Src/usbh_ctlreq.c ****       phost->os_msg = (uint32_t)USBH_CONTROL_EVENT;
 807:Middlewares/ST/STM32_USB_Host_Library/Core/Src/usbh_ctlreq.c **** #if (osCMSIS < 0x20000U)
 808:Middlewares/ST/STM32_USB_Host_Library/Core/Src/usbh_ctlreq.c ****       (void)osMessagePut(phost->os_event, phost->os_msg, 0U);
 809:Middlewares/ST/STM32_USB_Host_Library/Core/Src/usbh_ctlreq.c **** #else
 810:Middlewares/ST/STM32_USB_Host_Library/Core/Src/usbh_ctlreq.c ****       (void)osMessageQueuePut(phost->os_event, &phost->os_msg, 0U, NULL);
 811:Middlewares/ST/STM32_USB_Host_Library/Core/Src/usbh_ctlreq.c **** #endif
 812:Middlewares/ST/STM32_USB_Host_Library/Core/Src/usbh_ctlreq.c **** #endif
ARM GAS  /tmp/ccntKEh2.s 			page 22


 813:Middlewares/ST/STM32_USB_Host_Library/Core/Src/usbh_ctlreq.c ****     }
 814:Middlewares/ST/STM32_USB_Host_Library/Core/Src/usbh_ctlreq.c ****     else
 815:Middlewares/ST/STM32_USB_Host_Library/Core/Src/usbh_ctlreq.c ****     {
 816:Middlewares/ST/STM32_USB_Host_Library/Core/Src/usbh_ctlreq.c ****       if (URB_Status == USBH_URB_ERROR)
 817:Middlewares/ST/STM32_USB_Host_Library/Core/Src/usbh_ctlreq.c ****       {
 818:Middlewares/ST/STM32_USB_Host_Library/Core/Src/usbh_ctlreq.c ****         /* device error */
 819:Middlewares/ST/STM32_USB_Host_Library/Core/Src/usbh_ctlreq.c ****         phost->Control.state = CTRL_ERROR;
 820:Middlewares/ST/STM32_USB_Host_Library/Core/Src/usbh_ctlreq.c ****         status = USBH_FAIL;
 821:Middlewares/ST/STM32_USB_Host_Library/Core/Src/usbh_ctlreq.c **** 
 822:Middlewares/ST/STM32_USB_Host_Library/Core/Src/usbh_ctlreq.c **** #if (USBH_USE_OS == 1U)
 823:Middlewares/ST/STM32_USB_Host_Library/Core/Src/usbh_ctlreq.c ****         phost->os_msg = (uint32_t)USBH_CONTROL_EVENT;
 824:Middlewares/ST/STM32_USB_Host_Library/Core/Src/usbh_ctlreq.c **** #if (osCMSIS < 0x20000U)
 825:Middlewares/ST/STM32_USB_Host_Library/Core/Src/usbh_ctlreq.c ****         (void)osMessagePut(phost->os_event, phost->os_msg, 0U);
 826:Middlewares/ST/STM32_USB_Host_Library/Core/Src/usbh_ctlreq.c **** #else
 827:Middlewares/ST/STM32_USB_Host_Library/Core/Src/usbh_ctlreq.c ****         (void)osMessageQueuePut(phost->os_event, &phost->os_msg, 0U, NULL);
 828:Middlewares/ST/STM32_USB_Host_Library/Core/Src/usbh_ctlreq.c **** #endif
 829:Middlewares/ST/STM32_USB_Host_Library/Core/Src/usbh_ctlreq.c **** #endif
 830:Middlewares/ST/STM32_USB_Host_Library/Core/Src/usbh_ctlreq.c ****       }
 831:Middlewares/ST/STM32_USB_Host_Library/Core/Src/usbh_ctlreq.c ****     }
 832:Middlewares/ST/STM32_USB_Host_Library/Core/Src/usbh_ctlreq.c ****     break;
 833:Middlewares/ST/STM32_USB_Host_Library/Core/Src/usbh_ctlreq.c **** 
 834:Middlewares/ST/STM32_USB_Host_Library/Core/Src/usbh_ctlreq.c **** 
 835:Middlewares/ST/STM32_USB_Host_Library/Core/Src/usbh_ctlreq.c ****   case CTRL_STATUS_IN:
 836:Middlewares/ST/STM32_USB_Host_Library/Core/Src/usbh_ctlreq.c ****     /* Send 0 bytes out packet */
 837:Middlewares/ST/STM32_USB_Host_Library/Core/Src/usbh_ctlreq.c ****     USBH_CtlReceiveData (phost,
 838:Middlewares/ST/STM32_USB_Host_Library/Core/Src/usbh_ctlreq.c ****                          0U,
 839:Middlewares/ST/STM32_USB_Host_Library/Core/Src/usbh_ctlreq.c ****                          0U,
 840:Middlewares/ST/STM32_USB_Host_Library/Core/Src/usbh_ctlreq.c ****                          phost->Control.pipe_in);
 841:Middlewares/ST/STM32_USB_Host_Library/Core/Src/usbh_ctlreq.c ****     phost->Control.timer = (uint16_t)phost->Timer;
 842:Middlewares/ST/STM32_USB_Host_Library/Core/Src/usbh_ctlreq.c ****     phost->Control.state = CTRL_STATUS_IN_WAIT;
 843:Middlewares/ST/STM32_USB_Host_Library/Core/Src/usbh_ctlreq.c **** 
 844:Middlewares/ST/STM32_USB_Host_Library/Core/Src/usbh_ctlreq.c ****     break;
 845:Middlewares/ST/STM32_USB_Host_Library/Core/Src/usbh_ctlreq.c **** 
 846:Middlewares/ST/STM32_USB_Host_Library/Core/Src/usbh_ctlreq.c ****   case CTRL_STATUS_IN_WAIT:
 847:Middlewares/ST/STM32_USB_Host_Library/Core/Src/usbh_ctlreq.c **** 
 848:Middlewares/ST/STM32_USB_Host_Library/Core/Src/usbh_ctlreq.c ****     URB_Status = USBH_LL_GetURBState(phost , phost->Control.pipe_in);
 849:Middlewares/ST/STM32_USB_Host_Library/Core/Src/usbh_ctlreq.c **** 
 850:Middlewares/ST/STM32_USB_Host_Library/Core/Src/usbh_ctlreq.c ****     if  ( URB_Status == USBH_URB_DONE)
 851:Middlewares/ST/STM32_USB_Host_Library/Core/Src/usbh_ctlreq.c ****     { /* Control transfers completed, Exit the State Machine */
 852:Middlewares/ST/STM32_USB_Host_Library/Core/Src/usbh_ctlreq.c ****       phost->Control.state = CTRL_COMPLETE;
 853:Middlewares/ST/STM32_USB_Host_Library/Core/Src/usbh_ctlreq.c ****       status = USBH_OK;
 854:Middlewares/ST/STM32_USB_Host_Library/Core/Src/usbh_ctlreq.c **** 
 855:Middlewares/ST/STM32_USB_Host_Library/Core/Src/usbh_ctlreq.c **** #if (USBH_USE_OS == 1U)
 856:Middlewares/ST/STM32_USB_Host_Library/Core/Src/usbh_ctlreq.c ****       phost->os_msg = (uint32_t)USBH_CONTROL_EVENT;
 857:Middlewares/ST/STM32_USB_Host_Library/Core/Src/usbh_ctlreq.c **** #if (osCMSIS < 0x20000U)
 858:Middlewares/ST/STM32_USB_Host_Library/Core/Src/usbh_ctlreq.c ****       (void)osMessagePut(phost->os_event, phost->os_msg, 0U);
 859:Middlewares/ST/STM32_USB_Host_Library/Core/Src/usbh_ctlreq.c **** #else
 860:Middlewares/ST/STM32_USB_Host_Library/Core/Src/usbh_ctlreq.c ****       (void)osMessageQueuePut(phost->os_event, &phost->os_msg, 0U, NULL);
 861:Middlewares/ST/STM32_USB_Host_Library/Core/Src/usbh_ctlreq.c **** #endif
 862:Middlewares/ST/STM32_USB_Host_Library/Core/Src/usbh_ctlreq.c **** #endif
 863:Middlewares/ST/STM32_USB_Host_Library/Core/Src/usbh_ctlreq.c ****     }
 864:Middlewares/ST/STM32_USB_Host_Library/Core/Src/usbh_ctlreq.c ****     else if (URB_Status == USBH_URB_ERROR)
 865:Middlewares/ST/STM32_USB_Host_Library/Core/Src/usbh_ctlreq.c ****     {
 866:Middlewares/ST/STM32_USB_Host_Library/Core/Src/usbh_ctlreq.c ****       phost->Control.state = CTRL_ERROR;
 867:Middlewares/ST/STM32_USB_Host_Library/Core/Src/usbh_ctlreq.c **** 
 868:Middlewares/ST/STM32_USB_Host_Library/Core/Src/usbh_ctlreq.c **** #if (USBH_USE_OS == 1U)
 869:Middlewares/ST/STM32_USB_Host_Library/Core/Src/usbh_ctlreq.c ****       phost->os_msg = (uint32_t)USBH_CONTROL_EVENT;
ARM GAS  /tmp/ccntKEh2.s 			page 23


 870:Middlewares/ST/STM32_USB_Host_Library/Core/Src/usbh_ctlreq.c **** #if (osCMSIS < 0x20000U)
 871:Middlewares/ST/STM32_USB_Host_Library/Core/Src/usbh_ctlreq.c ****       (void)osMessagePut(phost->os_event, phost->os_msg, 0U);
 872:Middlewares/ST/STM32_USB_Host_Library/Core/Src/usbh_ctlreq.c **** #else
 873:Middlewares/ST/STM32_USB_Host_Library/Core/Src/usbh_ctlreq.c ****       (void)osMessageQueuePut(phost->os_event, &phost->os_msg, 0U, NULL);
 874:Middlewares/ST/STM32_USB_Host_Library/Core/Src/usbh_ctlreq.c **** #endif
 875:Middlewares/ST/STM32_USB_Host_Library/Core/Src/usbh_ctlreq.c **** #endif
 876:Middlewares/ST/STM32_USB_Host_Library/Core/Src/usbh_ctlreq.c ****     }
 877:Middlewares/ST/STM32_USB_Host_Library/Core/Src/usbh_ctlreq.c ****     else
 878:Middlewares/ST/STM32_USB_Host_Library/Core/Src/usbh_ctlreq.c ****     {
 879:Middlewares/ST/STM32_USB_Host_Library/Core/Src/usbh_ctlreq.c ****       if(URB_Status == USBH_URB_STALL)
 880:Middlewares/ST/STM32_USB_Host_Library/Core/Src/usbh_ctlreq.c ****       {
 881:Middlewares/ST/STM32_USB_Host_Library/Core/Src/usbh_ctlreq.c ****         /* Control transfers completed, Exit the State Machine */
 882:Middlewares/ST/STM32_USB_Host_Library/Core/Src/usbh_ctlreq.c ****         status = USBH_NOT_SUPPORTED;
 883:Middlewares/ST/STM32_USB_Host_Library/Core/Src/usbh_ctlreq.c **** 
 884:Middlewares/ST/STM32_USB_Host_Library/Core/Src/usbh_ctlreq.c **** #if (USBH_USE_OS == 1U)
 885:Middlewares/ST/STM32_USB_Host_Library/Core/Src/usbh_ctlreq.c ****         phost->os_msg = (uint32_t)USBH_CONTROL_EVENT;
 886:Middlewares/ST/STM32_USB_Host_Library/Core/Src/usbh_ctlreq.c **** #if (osCMSIS < 0x20000U)
 887:Middlewares/ST/STM32_USB_Host_Library/Core/Src/usbh_ctlreq.c ****         (void)osMessagePut(phost->os_event, phost->os_msg, 0U);
 888:Middlewares/ST/STM32_USB_Host_Library/Core/Src/usbh_ctlreq.c **** #else
 889:Middlewares/ST/STM32_USB_Host_Library/Core/Src/usbh_ctlreq.c ****         (void)osMessageQueuePut(phost->os_event, &phost->os_msg, 0U, NULL);
 890:Middlewares/ST/STM32_USB_Host_Library/Core/Src/usbh_ctlreq.c **** #endif
 891:Middlewares/ST/STM32_USB_Host_Library/Core/Src/usbh_ctlreq.c **** #endif
 892:Middlewares/ST/STM32_USB_Host_Library/Core/Src/usbh_ctlreq.c ****       }
 893:Middlewares/ST/STM32_USB_Host_Library/Core/Src/usbh_ctlreq.c ****     }
 894:Middlewares/ST/STM32_USB_Host_Library/Core/Src/usbh_ctlreq.c ****     break;
 895:Middlewares/ST/STM32_USB_Host_Library/Core/Src/usbh_ctlreq.c **** 
 896:Middlewares/ST/STM32_USB_Host_Library/Core/Src/usbh_ctlreq.c ****   case CTRL_STATUS_OUT:
 897:Middlewares/ST/STM32_USB_Host_Library/Core/Src/usbh_ctlreq.c ****     USBH_CtlSendData (phost,
 898:Middlewares/ST/STM32_USB_Host_Library/Core/Src/usbh_ctlreq.c ****                       0U,
 899:Middlewares/ST/STM32_USB_Host_Library/Core/Src/usbh_ctlreq.c ****                       0U,
 900:Middlewares/ST/STM32_USB_Host_Library/Core/Src/usbh_ctlreq.c ****                       phost->Control.pipe_out,
 901:Middlewares/ST/STM32_USB_Host_Library/Core/Src/usbh_ctlreq.c ****                       1U);
 902:Middlewares/ST/STM32_USB_Host_Library/Core/Src/usbh_ctlreq.c ****      phost->Control.timer = (uint16_t)phost->Timer;
 903:Middlewares/ST/STM32_USB_Host_Library/Core/Src/usbh_ctlreq.c ****     phost->Control.state = CTRL_STATUS_OUT_WAIT;
 904:Middlewares/ST/STM32_USB_Host_Library/Core/Src/usbh_ctlreq.c ****     break;
 905:Middlewares/ST/STM32_USB_Host_Library/Core/Src/usbh_ctlreq.c **** 
 906:Middlewares/ST/STM32_USB_Host_Library/Core/Src/usbh_ctlreq.c ****   case CTRL_STATUS_OUT_WAIT:
 907:Middlewares/ST/STM32_USB_Host_Library/Core/Src/usbh_ctlreq.c **** 
 908:Middlewares/ST/STM32_USB_Host_Library/Core/Src/usbh_ctlreq.c ****     URB_Status = USBH_LL_GetURBState(phost , phost->Control.pipe_out);
 909:Middlewares/ST/STM32_USB_Host_Library/Core/Src/usbh_ctlreq.c ****     if  (URB_Status == USBH_URB_DONE)
 910:Middlewares/ST/STM32_USB_Host_Library/Core/Src/usbh_ctlreq.c ****     {
 911:Middlewares/ST/STM32_USB_Host_Library/Core/Src/usbh_ctlreq.c ****       status = USBH_OK;
 912:Middlewares/ST/STM32_USB_Host_Library/Core/Src/usbh_ctlreq.c ****       phost->Control.state = CTRL_COMPLETE;
 913:Middlewares/ST/STM32_USB_Host_Library/Core/Src/usbh_ctlreq.c **** 
 914:Middlewares/ST/STM32_USB_Host_Library/Core/Src/usbh_ctlreq.c **** #if (USBH_USE_OS == 1U)
 915:Middlewares/ST/STM32_USB_Host_Library/Core/Src/usbh_ctlreq.c ****       phost->os_msg = (uint32_t)USBH_CONTROL_EVENT;
 916:Middlewares/ST/STM32_USB_Host_Library/Core/Src/usbh_ctlreq.c **** #if (osCMSIS < 0x20000U)
 917:Middlewares/ST/STM32_USB_Host_Library/Core/Src/usbh_ctlreq.c ****       (void)osMessagePut(phost->os_event, phost->os_msg, 0U);
 918:Middlewares/ST/STM32_USB_Host_Library/Core/Src/usbh_ctlreq.c **** #else
 919:Middlewares/ST/STM32_USB_Host_Library/Core/Src/usbh_ctlreq.c ****       (void)osMessageQueuePut(phost->os_event, &phost->os_msg, 0U, NULL);
 920:Middlewares/ST/STM32_USB_Host_Library/Core/Src/usbh_ctlreq.c **** #endif
 921:Middlewares/ST/STM32_USB_Host_Library/Core/Src/usbh_ctlreq.c **** #endif
 922:Middlewares/ST/STM32_USB_Host_Library/Core/Src/usbh_ctlreq.c ****     }
 923:Middlewares/ST/STM32_USB_Host_Library/Core/Src/usbh_ctlreq.c ****     else if  (URB_Status == USBH_URB_NOTREADY)
 924:Middlewares/ST/STM32_USB_Host_Library/Core/Src/usbh_ctlreq.c ****     {
 925:Middlewares/ST/STM32_USB_Host_Library/Core/Src/usbh_ctlreq.c ****       phost->Control.state = CTRL_STATUS_OUT;
 926:Middlewares/ST/STM32_USB_Host_Library/Core/Src/usbh_ctlreq.c **** 
ARM GAS  /tmp/ccntKEh2.s 			page 24


 927:Middlewares/ST/STM32_USB_Host_Library/Core/Src/usbh_ctlreq.c **** #if (USBH_USE_OS == 1U)
 928:Middlewares/ST/STM32_USB_Host_Library/Core/Src/usbh_ctlreq.c ****       phost->os_msg = (uint32_t)USBH_CONTROL_EVENT;
 929:Middlewares/ST/STM32_USB_Host_Library/Core/Src/usbh_ctlreq.c **** #if (osCMSIS < 0x20000U)
 930:Middlewares/ST/STM32_USB_Host_Library/Core/Src/usbh_ctlreq.c ****       (void)osMessagePut(phost->os_event, phost->os_msg, 0U);
 931:Middlewares/ST/STM32_USB_Host_Library/Core/Src/usbh_ctlreq.c **** #else
 932:Middlewares/ST/STM32_USB_Host_Library/Core/Src/usbh_ctlreq.c ****       (void)osMessageQueuePut(phost->os_event, &phost->os_msg, 0U, NULL);
 933:Middlewares/ST/STM32_USB_Host_Library/Core/Src/usbh_ctlreq.c **** #endif
 934:Middlewares/ST/STM32_USB_Host_Library/Core/Src/usbh_ctlreq.c **** #endif
 935:Middlewares/ST/STM32_USB_Host_Library/Core/Src/usbh_ctlreq.c ****     }
 936:Middlewares/ST/STM32_USB_Host_Library/Core/Src/usbh_ctlreq.c ****     else
 937:Middlewares/ST/STM32_USB_Host_Library/Core/Src/usbh_ctlreq.c ****     {
 938:Middlewares/ST/STM32_USB_Host_Library/Core/Src/usbh_ctlreq.c ****       if (URB_Status == USBH_URB_ERROR)
 939:Middlewares/ST/STM32_USB_Host_Library/Core/Src/usbh_ctlreq.c ****       {
 940:Middlewares/ST/STM32_USB_Host_Library/Core/Src/usbh_ctlreq.c ****         phost->Control.state = CTRL_ERROR;
 941:Middlewares/ST/STM32_USB_Host_Library/Core/Src/usbh_ctlreq.c **** 
 942:Middlewares/ST/STM32_USB_Host_Library/Core/Src/usbh_ctlreq.c **** #if (USBH_USE_OS == 1U)
 943:Middlewares/ST/STM32_USB_Host_Library/Core/Src/usbh_ctlreq.c ****         phost->os_msg = (uint32_t)USBH_CONTROL_EVENT;
 944:Middlewares/ST/STM32_USB_Host_Library/Core/Src/usbh_ctlreq.c **** #if (osCMSIS < 0x20000U)
 945:Middlewares/ST/STM32_USB_Host_Library/Core/Src/usbh_ctlreq.c ****         (void)osMessagePut(phost->os_event, phost->os_msg, 0U);
 946:Middlewares/ST/STM32_USB_Host_Library/Core/Src/usbh_ctlreq.c **** #else
 947:Middlewares/ST/STM32_USB_Host_Library/Core/Src/usbh_ctlreq.c ****         (void)osMessageQueuePut(phost->os_event, &phost->os_msg, 0U, NULL);
 948:Middlewares/ST/STM32_USB_Host_Library/Core/Src/usbh_ctlreq.c **** #endif
 949:Middlewares/ST/STM32_USB_Host_Library/Core/Src/usbh_ctlreq.c **** #endif
 950:Middlewares/ST/STM32_USB_Host_Library/Core/Src/usbh_ctlreq.c ****       }
 951:Middlewares/ST/STM32_USB_Host_Library/Core/Src/usbh_ctlreq.c **** 
 952:Middlewares/ST/STM32_USB_Host_Library/Core/Src/usbh_ctlreq.c ****     }
 953:Middlewares/ST/STM32_USB_Host_Library/Core/Src/usbh_ctlreq.c ****     break;
 954:Middlewares/ST/STM32_USB_Host_Library/Core/Src/usbh_ctlreq.c **** 
 955:Middlewares/ST/STM32_USB_Host_Library/Core/Src/usbh_ctlreq.c ****   case CTRL_ERROR:
 956:Middlewares/ST/STM32_USB_Host_Library/Core/Src/usbh_ctlreq.c ****     /*
 957:Middlewares/ST/STM32_USB_Host_Library/Core/Src/usbh_ctlreq.c ****     After a halt condition is encountered or an error is detected by the
 958:Middlewares/ST/STM32_USB_Host_Library/Core/Src/usbh_ctlreq.c ****     host, a control endpoint is allowed to recover by accepting the next Setup
 959:Middlewares/ST/STM32_USB_Host_Library/Core/Src/usbh_ctlreq.c ****     PID; i.e., recovery actions via some other pipe are not required for control
 960:Middlewares/ST/STM32_USB_Host_Library/Core/Src/usbh_ctlreq.c ****     endpoints. For the Default Control Pipe, a device reset will ultimately be
 961:Middlewares/ST/STM32_USB_Host_Library/Core/Src/usbh_ctlreq.c ****     required to clear the halt or error condition if the next Setup PID is not
 962:Middlewares/ST/STM32_USB_Host_Library/Core/Src/usbh_ctlreq.c ****     accepted.
 963:Middlewares/ST/STM32_USB_Host_Library/Core/Src/usbh_ctlreq.c ****     */
 964:Middlewares/ST/STM32_USB_Host_Library/Core/Src/usbh_ctlreq.c ****     if (++ phost->Control.errorcount <= USBH_MAX_ERROR_COUNT)
 965:Middlewares/ST/STM32_USB_Host_Library/Core/Src/usbh_ctlreq.c ****     {
 966:Middlewares/ST/STM32_USB_Host_Library/Core/Src/usbh_ctlreq.c ****       /* try to recover control */
 967:Middlewares/ST/STM32_USB_Host_Library/Core/Src/usbh_ctlreq.c ****       USBH_LL_Stop(phost);
 968:Middlewares/ST/STM32_USB_Host_Library/Core/Src/usbh_ctlreq.c **** 
 969:Middlewares/ST/STM32_USB_Host_Library/Core/Src/usbh_ctlreq.c ****       /* Do the transmission again, starting from SETUP Packet */
 970:Middlewares/ST/STM32_USB_Host_Library/Core/Src/usbh_ctlreq.c ****       phost->Control.state = CTRL_SETUP;
 971:Middlewares/ST/STM32_USB_Host_Library/Core/Src/usbh_ctlreq.c ****       phost->RequestState = CMD_SEND;
 972:Middlewares/ST/STM32_USB_Host_Library/Core/Src/usbh_ctlreq.c ****     }
 973:Middlewares/ST/STM32_USB_Host_Library/Core/Src/usbh_ctlreq.c ****     else
 974:Middlewares/ST/STM32_USB_Host_Library/Core/Src/usbh_ctlreq.c ****     {
 975:Middlewares/ST/STM32_USB_Host_Library/Core/Src/usbh_ctlreq.c ****       phost->pUser(phost, HOST_USER_UNRECOVERED_ERROR);
 976:Middlewares/ST/STM32_USB_Host_Library/Core/Src/usbh_ctlreq.c ****       phost->Control.errorcount = 0U;
 977:Middlewares/ST/STM32_USB_Host_Library/Core/Src/usbh_ctlreq.c ****       USBH_ErrLog("Control error");
 978:Middlewares/ST/STM32_USB_Host_Library/Core/Src/usbh_ctlreq.c ****       status = USBH_FAIL;
 979:Middlewares/ST/STM32_USB_Host_Library/Core/Src/usbh_ctlreq.c ****     }
 980:Middlewares/ST/STM32_USB_Host_Library/Core/Src/usbh_ctlreq.c ****     break;
 981:Middlewares/ST/STM32_USB_Host_Library/Core/Src/usbh_ctlreq.c **** 
 982:Middlewares/ST/STM32_USB_Host_Library/Core/Src/usbh_ctlreq.c ****   default:
 983:Middlewares/ST/STM32_USB_Host_Library/Core/Src/usbh_ctlreq.c ****     break;
ARM GAS  /tmp/ccntKEh2.s 			page 25


 984:Middlewares/ST/STM32_USB_Host_Library/Core/Src/usbh_ctlreq.c ****   }
 985:Middlewares/ST/STM32_USB_Host_Library/Core/Src/usbh_ctlreq.c ****   return status;
 386              		.loc 1 985 3 view .LVU120
 986:Middlewares/ST/STM32_USB_Host_Library/Core/Src/usbh_ctlreq.c **** }
 387              		.loc 1 986 1 is_stmt 0 view .LVU121
 388 002e 2846     		mov	r0, r5
 389 0030 03B0     		add	sp, sp, #12
 390              	.LCFI6:
 391              		.cfi_remember_state
 392              		.cfi_def_cfa_offset 12
 393              		@ sp needed
 394 0032 30BD     		pop	{r4, r5, pc}
 395              	.LVL17:
 396              	.L30:
 397              	.LCFI7:
 398              		.cfi_restore_state
 628:Middlewares/ST/STM32_USB_Host_Library/Core/Src/usbh_ctlreq.c ****     /* case SETUP packet sent successfully */
 399              		.loc 1 628 5 is_stmt 1 view .LVU122
 628:Middlewares/ST/STM32_USB_Host_Library/Core/Src/usbh_ctlreq.c ****     /* case SETUP packet sent successfully */
 400              		.loc 1 628 18 is_stmt 0 view .LVU123
 401 0034 4179     		ldrb	r1, [r0, #5]	@ zero_extendqisi2
 402 0036 FFF7FEFF 		bl	USBH_LL_GetURBState
 403              	.LVL18:
 628:Middlewares/ST/STM32_USB_Host_Library/Core/Src/usbh_ctlreq.c ****     /* case SETUP packet sent successfully */
 404              		.loc 1 628 18 view .LVU124
 405 003a 0546     		mov	r5, r0
 406              	.LVL19:
 630:Middlewares/ST/STM32_USB_Host_Library/Core/Src/usbh_ctlreq.c ****     {
 407              		.loc 1 630 5 is_stmt 1 view .LVU125
 630:Middlewares/ST/STM32_USB_Host_Library/Core/Src/usbh_ctlreq.c ****     {
 408              		.loc 1 630 7 is_stmt 0 view .LVU126
 409 003c 0128     		cmp	r0, #1
 410 003e 05D0     		beq	.L54
 675:Middlewares/ST/STM32_USB_Host_Library/Core/Src/usbh_ctlreq.c ****       {
 411              		.loc 1 675 7 is_stmt 1 view .LVU127
 675:Middlewares/ST/STM32_USB_Host_Library/Core/Src/usbh_ctlreq.c ****       {
 412              		.loc 1 675 9 is_stmt 0 view .LVU128
 413 0040 0428     		cmp	r0, #4
 414 0042 18D0     		beq	.L36
 675:Middlewares/ST/STM32_USB_Host_Library/Core/Src/usbh_ctlreq.c ****       {
 415              		.loc 1 675 41 discriminator 1 view .LVU129
 416 0044 0228     		cmp	r0, #2
 417 0046 16D0     		beq	.L36
 613:Middlewares/ST/STM32_USB_Host_Library/Core/Src/usbh_ctlreq.c ****   USBH_URBStateTypeDef URB_Status = USBH_URB_IDLE;
 418              		.loc 1 613 22 view .LVU130
 419 0048 0125     		movs	r5, #1
 420 004a F0E7     		b	.L19
 421              	.L54:
 632:Middlewares/ST/STM32_USB_Host_Library/Core/Src/usbh_ctlreq.c **** 
 422              		.loc 1 632 7 is_stmt 1 view .LVU131
 632:Middlewares/ST/STM32_USB_Host_Library/Core/Src/usbh_ctlreq.c **** 
 423              		.loc 1 632 42 is_stmt 0 view .LVU132
 424 004c 237C     		ldrb	r3, [r4, #16]	@ zero_extendqisi2
 425              	.LVL20:
 635:Middlewares/ST/STM32_USB_Host_Library/Core/Src/usbh_ctlreq.c ****       {
 426              		.loc 1 635 7 is_stmt 1 view .LVU133
 635:Middlewares/ST/STM32_USB_Host_Library/Core/Src/usbh_ctlreq.c ****       {
ARM GAS  /tmp/ccntKEh2.s 			page 26


 427              		.loc 1 635 41 is_stmt 0 view .LVU134
 428 004e E28A     		ldrh	r2, [r4, #22]
 635:Middlewares/ST/STM32_USB_Host_Library/Core/Src/usbh_ctlreq.c ****       {
 429              		.loc 1 635 10 view .LVU135
 430 0050 42B1     		cbz	r2, .L33
 637:Middlewares/ST/STM32_USB_Host_Library/Core/Src/usbh_ctlreq.c ****         {
 431              		.loc 1 637 9 is_stmt 1 view .LVU136
 637:Middlewares/ST/STM32_USB_Host_Library/Core/Src/usbh_ctlreq.c ****         {
 432              		.loc 1 637 12 is_stmt 0 view .LVU137
 433 0052 13F0800F 		tst	r3, #128
 434 0056 02D1     		bne	.L55
 645:Middlewares/ST/STM32_USB_Host_Library/Core/Src/usbh_ctlreq.c ****         }
 435              		.loc 1 645 11 is_stmt 1 view .LVU138
 645:Middlewares/ST/STM32_USB_Host_Library/Core/Src/usbh_ctlreq.c ****         }
 436              		.loc 1 645 32 is_stmt 0 view .LVU139
 437 0058 0523     		movs	r3, #5
 438              	.LVL21:
 645:Middlewares/ST/STM32_USB_Host_Library/Core/Src/usbh_ctlreq.c ****         }
 439              		.loc 1 645 32 view .LVU140
 440 005a 2376     		strb	r3, [r4, #24]
 441 005c E7E7     		b	.L19
 442              	.LVL22:
 443              	.L55:
 640:Middlewares/ST/STM32_USB_Host_Library/Core/Src/usbh_ctlreq.c ****         }
 444              		.loc 1 640 11 is_stmt 1 view .LVU141
 640:Middlewares/ST/STM32_USB_Host_Library/Core/Src/usbh_ctlreq.c ****         }
 445              		.loc 1 640 32 is_stmt 0 view .LVU142
 446 005e 0323     		movs	r3, #3
 447              	.LVL23:
 640:Middlewares/ST/STM32_USB_Host_Library/Core/Src/usbh_ctlreq.c ****         }
 448              		.loc 1 640 32 view .LVU143
 449 0060 2376     		strb	r3, [r4, #24]
 450 0062 E4E7     		b	.L19
 451              	.LVL24:
 452              	.L33:
 652:Middlewares/ST/STM32_USB_Host_Library/Core/Src/usbh_ctlreq.c ****         {
 453              		.loc 1 652 9 is_stmt 1 view .LVU144
 652:Middlewares/ST/STM32_USB_Host_Library/Core/Src/usbh_ctlreq.c ****         {
 454              		.loc 1 652 12 is_stmt 0 view .LVU145
 455 0064 13F0800F 		tst	r3, #128
 456 0068 02D1     		bne	.L56
 660:Middlewares/ST/STM32_USB_Host_Library/Core/Src/usbh_ctlreq.c ****         }
 457              		.loc 1 660 11 is_stmt 1 view .LVU146
 660:Middlewares/ST/STM32_USB_Host_Library/Core/Src/usbh_ctlreq.c ****         }
 458              		.loc 1 660 32 is_stmt 0 view .LVU147
 459 006a 0723     		movs	r3, #7
 460              	.LVL25:
 660:Middlewares/ST/STM32_USB_Host_Library/Core/Src/usbh_ctlreq.c ****         }
 461              		.loc 1 660 32 view .LVU148
 462 006c 2376     		strb	r3, [r4, #24]
 463 006e DEE7     		b	.L19
 464              	.LVL26:
 465              	.L56:
 655:Middlewares/ST/STM32_USB_Host_Library/Core/Src/usbh_ctlreq.c ****         }
 466              		.loc 1 655 11 is_stmt 1 view .LVU149
 655:Middlewares/ST/STM32_USB_Host_Library/Core/Src/usbh_ctlreq.c ****         }
 467              		.loc 1 655 32 is_stmt 0 view .LVU150
ARM GAS  /tmp/ccntKEh2.s 			page 27


 468 0070 0923     		movs	r3, #9
 469              	.LVL27:
 655:Middlewares/ST/STM32_USB_Host_Library/Core/Src/usbh_ctlreq.c ****         }
 470              		.loc 1 655 32 view .LVU151
 471 0072 2376     		strb	r3, [r4, #24]
 472 0074 DBE7     		b	.L19
 473              	.LVL28:
 474              	.L36:
 677:Middlewares/ST/STM32_USB_Host_Library/Core/Src/usbh_ctlreq.c **** 
 475              		.loc 1 677 9 is_stmt 1 view .LVU152
 677:Middlewares/ST/STM32_USB_Host_Library/Core/Src/usbh_ctlreq.c **** 
 476              		.loc 1 677 30 is_stmt 0 view .LVU153
 477 0076 0B23     		movs	r3, #11
 478 0078 2376     		strb	r3, [r4, #24]
 613:Middlewares/ST/STM32_USB_Host_Library/Core/Src/usbh_ctlreq.c ****   USBH_URBStateTypeDef URB_Status = USBH_URB_IDLE;
 479              		.loc 1 613 22 view .LVU154
 480 007a 0125     		movs	r5, #1
 481 007c D7E7     		b	.L19
 482              	.LVL29:
 483              	.L29:
 693:Middlewares/ST/STM32_USB_Host_Library/Core/Src/usbh_ctlreq.c ****     USBH_CtlReceiveData(phost,
 484              		.loc 1 693 5 is_stmt 1 view .LVU155
 693:Middlewares/ST/STM32_USB_Host_Library/Core/Src/usbh_ctlreq.c ****     USBH_CtlReceiveData(phost,
 485              		.loc 1 693 43 is_stmt 0 view .LVU156
 486 007e D0F8BC33 		ldr	r3, [r0, #956]
 693:Middlewares/ST/STM32_USB_Host_Library/Core/Src/usbh_ctlreq.c ****     USBH_CtlReceiveData(phost,
 487              		.loc 1 693 26 view .LVU157
 488 0082 C381     		strh	r3, [r0, #14]	@ movhi
 694:Middlewares/ST/STM32_USB_Host_Library/Core/Src/usbh_ctlreq.c ****                         phost->Control.buff,
 489              		.loc 1 694 5 is_stmt 1 view .LVU158
 490 0084 0379     		ldrb	r3, [r0, #4]	@ zero_extendqisi2
 491 0086 8289     		ldrh	r2, [r0, #12]
 492 0088 8168     		ldr	r1, [r0, #8]
 493 008a FFF7FEFF 		bl	USBH_CtlReceiveData
 494              	.LVL30:
 699:Middlewares/ST/STM32_USB_Host_Library/Core/Src/usbh_ctlreq.c ****     break;
 495              		.loc 1 699 5 view .LVU159
 699:Middlewares/ST/STM32_USB_Host_Library/Core/Src/usbh_ctlreq.c ****     break;
 496              		.loc 1 699 26 is_stmt 0 view .LVU160
 497 008e 0423     		movs	r3, #4
 498 0090 2376     		strb	r3, [r4, #24]
 700:Middlewares/ST/STM32_USB_Host_Library/Core/Src/usbh_ctlreq.c **** 
 499              		.loc 1 700 5 is_stmt 1 view .LVU161
 613:Middlewares/ST/STM32_USB_Host_Library/Core/Src/usbh_ctlreq.c ****   USBH_URBStateTypeDef URB_Status = USBH_URB_IDLE;
 500              		.loc 1 613 22 is_stmt 0 view .LVU162
 501 0092 0125     		movs	r5, #1
 700:Middlewares/ST/STM32_USB_Host_Library/Core/Src/usbh_ctlreq.c **** 
 502              		.loc 1 700 5 view .LVU163
 503 0094 CBE7     		b	.L19
 504              	.LVL31:
 505              	.L28:
 704:Middlewares/ST/STM32_USB_Host_Library/Core/Src/usbh_ctlreq.c **** 
 506              		.loc 1 704 5 is_stmt 1 view .LVU164
 704:Middlewares/ST/STM32_USB_Host_Library/Core/Src/usbh_ctlreq.c **** 
 507              		.loc 1 704 18 is_stmt 0 view .LVU165
 508 0096 0179     		ldrb	r1, [r0, #4]	@ zero_extendqisi2
 509 0098 FFF7FEFF 		bl	USBH_LL_GetURBState
ARM GAS  /tmp/ccntKEh2.s 			page 28


 510              	.LVL32:
 707:Middlewares/ST/STM32_USB_Host_Library/Core/Src/usbh_ctlreq.c ****     {
 511              		.loc 1 707 5 is_stmt 1 view .LVU166
 707:Middlewares/ST/STM32_USB_Host_Library/Core/Src/usbh_ctlreq.c ****     {
 512              		.loc 1 707 9 is_stmt 0 view .LVU167
 513 009c 0128     		cmp	r0, #1
 514 009e 06D0     		beq	.L57
 515              	.L37:
 722:Middlewares/ST/STM32_USB_Host_Library/Core/Src/usbh_ctlreq.c ****     {
 516              		.loc 1 722 5 is_stmt 1 view .LVU168
 722:Middlewares/ST/STM32_USB_Host_Library/Core/Src/usbh_ctlreq.c ****     {
 517              		.loc 1 722 9 is_stmt 0 view .LVU169
 518 00a0 0528     		cmp	r0, #5
 519 00a2 00F08E80 		beq	.L48
 738:Middlewares/ST/STM32_USB_Host_Library/Core/Src/usbh_ctlreq.c ****       {
 520              		.loc 1 738 7 is_stmt 1 view .LVU170
 738:Middlewares/ST/STM32_USB_Host_Library/Core/Src/usbh_ctlreq.c ****       {
 521              		.loc 1 738 10 is_stmt 0 view .LVU171
 522 00a6 0428     		cmp	r0, #4
 523 00a8 04D0     		beq	.L58
 613:Middlewares/ST/STM32_USB_Host_Library/Core/Src/usbh_ctlreq.c ****   USBH_URBStateTypeDef URB_Status = USBH_URB_IDLE;
 524              		.loc 1 613 22 view .LVU172
 525 00aa 0125     		movs	r5, #1
 526 00ac BFE7     		b	.L19
 527              	.L57:
 709:Middlewares/ST/STM32_USB_Host_Library/Core/Src/usbh_ctlreq.c **** 
 528              		.loc 1 709 7 is_stmt 1 view .LVU173
 709:Middlewares/ST/STM32_USB_Host_Library/Core/Src/usbh_ctlreq.c **** 
 529              		.loc 1 709 28 is_stmt 0 view .LVU174
 530 00ae 0923     		movs	r3, #9
 531 00b0 2376     		strb	r3, [r4, #24]
 532 00b2 F5E7     		b	.L37
 533              	.L58:
 741:Middlewares/ST/STM32_USB_Host_Library/Core/Src/usbh_ctlreq.c **** 
 534              		.loc 1 741 9 is_stmt 1 view .LVU175
 741:Middlewares/ST/STM32_USB_Host_Library/Core/Src/usbh_ctlreq.c **** 
 535              		.loc 1 741 30 is_stmt 0 view .LVU176
 536 00b4 0B23     		movs	r3, #11
 537 00b6 2376     		strb	r3, [r4, #24]
 613:Middlewares/ST/STM32_USB_Host_Library/Core/Src/usbh_ctlreq.c ****   USBH_URBStateTypeDef URB_Status = USBH_URB_IDLE;
 538              		.loc 1 613 22 view .LVU177
 539 00b8 0125     		movs	r5, #1
 540 00ba B8E7     		b	.L19
 541              	.LVL33:
 542              	.L27:
 757:Middlewares/ST/STM32_USB_Host_Library/Core/Src/usbh_ctlreq.c ****                       phost->Control.buff,
 543              		.loc 1 757 5 is_stmt 1 view .LVU178
 544 00bc 0125     		movs	r5, #1
 545 00be 0095     		str	r5, [sp]
 546 00c0 4379     		ldrb	r3, [r0, #5]	@ zero_extendqisi2
 547 00c2 8289     		ldrh	r2, [r0, #12]
 548 00c4 8168     		ldr	r1, [r0, #8]
 549 00c6 FFF7FEFF 		bl	USBH_CtlSendData
 550              	.LVL34:
 762:Middlewares/ST/STM32_USB_Host_Library/Core/Src/usbh_ctlreq.c ****     phost->Control.state = CTRL_DATA_OUT_WAIT;
 551              		.loc 1 762 6 view .LVU179
 762:Middlewares/ST/STM32_USB_Host_Library/Core/Src/usbh_ctlreq.c ****     phost->Control.state = CTRL_DATA_OUT_WAIT;
ARM GAS  /tmp/ccntKEh2.s 			page 29


 552              		.loc 1 762 44 is_stmt 0 view .LVU180
 553 00ca D4F8BC33 		ldr	r3, [r4, #956]
 762:Middlewares/ST/STM32_USB_Host_Library/Core/Src/usbh_ctlreq.c ****     phost->Control.state = CTRL_DATA_OUT_WAIT;
 554              		.loc 1 762 27 view .LVU181
 555 00ce E381     		strh	r3, [r4, #14]	@ movhi
 763:Middlewares/ST/STM32_USB_Host_Library/Core/Src/usbh_ctlreq.c ****     break;
 556              		.loc 1 763 5 is_stmt 1 view .LVU182
 763:Middlewares/ST/STM32_USB_Host_Library/Core/Src/usbh_ctlreq.c ****     break;
 557              		.loc 1 763 26 is_stmt 0 view .LVU183
 558 00d0 0623     		movs	r3, #6
 559 00d2 2376     		strb	r3, [r4, #24]
 764:Middlewares/ST/STM32_USB_Host_Library/Core/Src/usbh_ctlreq.c **** 
 560              		.loc 1 764 5 is_stmt 1 view .LVU184
 561 00d4 ABE7     		b	.L19
 562              	.LVL35:
 563              	.L26:
 768:Middlewares/ST/STM32_USB_Host_Library/Core/Src/usbh_ctlreq.c **** 
 564              		.loc 1 768 5 view .LVU185
 768:Middlewares/ST/STM32_USB_Host_Library/Core/Src/usbh_ctlreq.c **** 
 565              		.loc 1 768 18 is_stmt 0 view .LVU186
 566 00d6 4179     		ldrb	r1, [r0, #5]	@ zero_extendqisi2
 567 00d8 FFF7FEFF 		bl	USBH_LL_GetURBState
 568              	.LVL36:
 768:Middlewares/ST/STM32_USB_Host_Library/Core/Src/usbh_ctlreq.c **** 
 569              		.loc 1 768 18 view .LVU187
 570 00dc 0546     		mov	r5, r0
 571              	.LVL37:
 770:Middlewares/ST/STM32_USB_Host_Library/Core/Src/usbh_ctlreq.c ****     { /* If the Setup Pkt is sent successful, then change the state */
 572              		.loc 1 770 5 is_stmt 1 view .LVU188
 770:Middlewares/ST/STM32_USB_Host_Library/Core/Src/usbh_ctlreq.c ****     { /* If the Setup Pkt is sent successful, then change the state */
 573              		.loc 1 770 9 is_stmt 0 view .LVU189
 574 00de 0128     		cmp	r0, #1
 575 00e0 07D0     		beq	.L59
 785:Middlewares/ST/STM32_USB_Host_Library/Core/Src/usbh_ctlreq.c ****     {
 576              		.loc 1 785 10 is_stmt 1 view .LVU190
 785:Middlewares/ST/STM32_USB_Host_Library/Core/Src/usbh_ctlreq.c ****     {
 577              		.loc 1 785 14 is_stmt 0 view .LVU191
 578 00e2 0528     		cmp	r0, #5
 579 00e4 08D0     		beq	.L60
 800:Middlewares/ST/STM32_USB_Host_Library/Core/Src/usbh_ctlreq.c ****     {
 580              		.loc 1 800 10 is_stmt 1 view .LVU192
 800:Middlewares/ST/STM32_USB_Host_Library/Core/Src/usbh_ctlreq.c ****     {
 581              		.loc 1 800 14 is_stmt 0 view .LVU193
 582 00e6 0228     		cmp	r0, #2
 583 00e8 0AD0     		beq	.L61
 816:Middlewares/ST/STM32_USB_Host_Library/Core/Src/usbh_ctlreq.c ****       {
 584              		.loc 1 816 7 is_stmt 1 view .LVU194
 816:Middlewares/ST/STM32_USB_Host_Library/Core/Src/usbh_ctlreq.c ****       {
 585              		.loc 1 816 10 is_stmt 0 view .LVU195
 586 00ea 0428     		cmp	r0, #4
 587 00ec 0CD0     		beq	.L62
 613:Middlewares/ST/STM32_USB_Host_Library/Core/Src/usbh_ctlreq.c ****   USBH_URBStateTypeDef URB_Status = USBH_URB_IDLE;
 588              		.loc 1 613 22 view .LVU196
 589 00ee 0125     		movs	r5, #1
 590 00f0 9DE7     		b	.L19
 591              	.L59:
 772:Middlewares/ST/STM32_USB_Host_Library/Core/Src/usbh_ctlreq.c **** 
ARM GAS  /tmp/ccntKEh2.s 			page 30


 592              		.loc 1 772 7 is_stmt 1 view .LVU197
 772:Middlewares/ST/STM32_USB_Host_Library/Core/Src/usbh_ctlreq.c **** 
 593              		.loc 1 772 28 is_stmt 0 view .LVU198
 594 00f2 0723     		movs	r3, #7
 595 00f4 2376     		strb	r3, [r4, #24]
 596 00f6 9AE7     		b	.L19
 597              	.L60:
 788:Middlewares/ST/STM32_USB_Host_Library/Core/Src/usbh_ctlreq.c ****       status = USBH_NOT_SUPPORTED;
 598              		.loc 1 788 7 is_stmt 1 view .LVU199
 788:Middlewares/ST/STM32_USB_Host_Library/Core/Src/usbh_ctlreq.c ****       status = USBH_NOT_SUPPORTED;
 599              		.loc 1 788 28 is_stmt 0 view .LVU200
 600 00f8 0C23     		movs	r3, #12
 601 00fa 2376     		strb	r3, [r4, #24]
 789:Middlewares/ST/STM32_USB_Host_Library/Core/Src/usbh_ctlreq.c **** 
 602              		.loc 1 789 7 is_stmt 1 view .LVU201
 603              	.LVL38:
 789:Middlewares/ST/STM32_USB_Host_Library/Core/Src/usbh_ctlreq.c **** 
 604              		.loc 1 789 14 is_stmt 0 view .LVU202
 605 00fc 0325     		movs	r5, #3
 606 00fe 96E7     		b	.L19
 607              	.LVL39:
 608              	.L61:
 803:Middlewares/ST/STM32_USB_Host_Library/Core/Src/usbh_ctlreq.c **** 
 609              		.loc 1 803 7 is_stmt 1 view .LVU203
 803:Middlewares/ST/STM32_USB_Host_Library/Core/Src/usbh_ctlreq.c **** 
 610              		.loc 1 803 28 is_stmt 0 view .LVU204
 611 0100 0523     		movs	r3, #5
 612 0102 2376     		strb	r3, [r4, #24]
 613:Middlewares/ST/STM32_USB_Host_Library/Core/Src/usbh_ctlreq.c ****   USBH_URBStateTypeDef URB_Status = USBH_URB_IDLE;
 613              		.loc 1 613 22 view .LVU205
 614 0104 0125     		movs	r5, #1
 615 0106 92E7     		b	.L19
 616              	.L62:
 819:Middlewares/ST/STM32_USB_Host_Library/Core/Src/usbh_ctlreq.c ****         status = USBH_FAIL;
 617              		.loc 1 819 9 is_stmt 1 view .LVU206
 819:Middlewares/ST/STM32_USB_Host_Library/Core/Src/usbh_ctlreq.c ****         status = USBH_FAIL;
 618              		.loc 1 819 30 is_stmt 0 view .LVU207
 619 0108 0B23     		movs	r3, #11
 620 010a 2376     		strb	r3, [r4, #24]
 820:Middlewares/ST/STM32_USB_Host_Library/Core/Src/usbh_ctlreq.c **** 
 621              		.loc 1 820 9 is_stmt 1 view .LVU208
 622              	.LVL40:
 820:Middlewares/ST/STM32_USB_Host_Library/Core/Src/usbh_ctlreq.c **** 
 623              		.loc 1 820 16 is_stmt 0 view .LVU209
 624 010c 0225     		movs	r5, #2
 625 010e 8EE7     		b	.L19
 626              	.LVL41:
 627              	.L25:
 837:Middlewares/ST/STM32_USB_Host_Library/Core/Src/usbh_ctlreq.c ****                          0U,
 628              		.loc 1 837 5 is_stmt 1 view .LVU210
 629 0110 0379     		ldrb	r3, [r0, #4]	@ zero_extendqisi2
 630 0112 0022     		movs	r2, #0
 631 0114 1146     		mov	r1, r2
 632 0116 FFF7FEFF 		bl	USBH_CtlReceiveData
 633              	.LVL42:
 841:Middlewares/ST/STM32_USB_Host_Library/Core/Src/usbh_ctlreq.c ****     phost->Control.state = CTRL_STATUS_IN_WAIT;
 634              		.loc 1 841 5 view .LVU211
ARM GAS  /tmp/ccntKEh2.s 			page 31


 841:Middlewares/ST/STM32_USB_Host_Library/Core/Src/usbh_ctlreq.c ****     phost->Control.state = CTRL_STATUS_IN_WAIT;
 635              		.loc 1 841 43 is_stmt 0 view .LVU212
 636 011a D4F8BC33 		ldr	r3, [r4, #956]
 841:Middlewares/ST/STM32_USB_Host_Library/Core/Src/usbh_ctlreq.c ****     phost->Control.state = CTRL_STATUS_IN_WAIT;
 637              		.loc 1 841 26 view .LVU213
 638 011e E381     		strh	r3, [r4, #14]	@ movhi
 842:Middlewares/ST/STM32_USB_Host_Library/Core/Src/usbh_ctlreq.c **** 
 639              		.loc 1 842 5 is_stmt 1 view .LVU214
 842:Middlewares/ST/STM32_USB_Host_Library/Core/Src/usbh_ctlreq.c **** 
 640              		.loc 1 842 26 is_stmt 0 view .LVU215
 641 0120 0823     		movs	r3, #8
 642 0122 2376     		strb	r3, [r4, #24]
 844:Middlewares/ST/STM32_USB_Host_Library/Core/Src/usbh_ctlreq.c **** 
 643              		.loc 1 844 5 is_stmt 1 view .LVU216
 613:Middlewares/ST/STM32_USB_Host_Library/Core/Src/usbh_ctlreq.c ****   USBH_URBStateTypeDef URB_Status = USBH_URB_IDLE;
 644              		.loc 1 613 22 is_stmt 0 view .LVU217
 645 0124 0125     		movs	r5, #1
 844:Middlewares/ST/STM32_USB_Host_Library/Core/Src/usbh_ctlreq.c **** 
 646              		.loc 1 844 5 view .LVU218
 647 0126 82E7     		b	.L19
 648              	.LVL43:
 649              	.L24:
 848:Middlewares/ST/STM32_USB_Host_Library/Core/Src/usbh_ctlreq.c **** 
 650              		.loc 1 848 5 is_stmt 1 view .LVU219
 848:Middlewares/ST/STM32_USB_Host_Library/Core/Src/usbh_ctlreq.c **** 
 651              		.loc 1 848 18 is_stmt 0 view .LVU220
 652 0128 0179     		ldrb	r1, [r0, #4]	@ zero_extendqisi2
 653 012a FFF7FEFF 		bl	USBH_LL_GetURBState
 654              	.LVL44:
 850:Middlewares/ST/STM32_USB_Host_Library/Core/Src/usbh_ctlreq.c ****     { /* Control transfers completed, Exit the State Machine */
 655              		.loc 1 850 5 is_stmt 1 view .LVU221
 850:Middlewares/ST/STM32_USB_Host_Library/Core/Src/usbh_ctlreq.c ****     { /* Control transfers completed, Exit the State Machine */
 656              		.loc 1 850 9 is_stmt 0 view .LVU222
 657 012e 0128     		cmp	r0, #1
 658 0130 05D0     		beq	.L63
 864:Middlewares/ST/STM32_USB_Host_Library/Core/Src/usbh_ctlreq.c ****     {
 659              		.loc 1 864 10 is_stmt 1 view .LVU223
 864:Middlewares/ST/STM32_USB_Host_Library/Core/Src/usbh_ctlreq.c ****     {
 660              		.loc 1 864 13 is_stmt 0 view .LVU224
 661 0132 0428     		cmp	r0, #4
 662 0134 07D0     		beq	.L64
 879:Middlewares/ST/STM32_USB_Host_Library/Core/Src/usbh_ctlreq.c ****       {
 663              		.loc 1 879 7 is_stmt 1 view .LVU225
 879:Middlewares/ST/STM32_USB_Host_Library/Core/Src/usbh_ctlreq.c ****       {
 664              		.loc 1 879 9 is_stmt 0 view .LVU226
 665 0136 0528     		cmp	r0, #5
 666 0138 45D0     		beq	.L51
 613:Middlewares/ST/STM32_USB_Host_Library/Core/Src/usbh_ctlreq.c ****   USBH_URBStateTypeDef URB_Status = USBH_URB_IDLE;
 667              		.loc 1 613 22 view .LVU227
 668 013a 0125     		movs	r5, #1
 669 013c 77E7     		b	.L19
 670              	.L63:
 852:Middlewares/ST/STM32_USB_Host_Library/Core/Src/usbh_ctlreq.c ****       status = USBH_OK;
 671              		.loc 1 852 7 is_stmt 1 view .LVU228
 852:Middlewares/ST/STM32_USB_Host_Library/Core/Src/usbh_ctlreq.c ****       status = USBH_OK;
 672              		.loc 1 852 28 is_stmt 0 view .LVU229
 673 013e 0D23     		movs	r3, #13
ARM GAS  /tmp/ccntKEh2.s 			page 32


 674 0140 2376     		strb	r3, [r4, #24]
 853:Middlewares/ST/STM32_USB_Host_Library/Core/Src/usbh_ctlreq.c **** 
 675              		.loc 1 853 7 is_stmt 1 view .LVU230
 676              	.LVL45:
 853:Middlewares/ST/STM32_USB_Host_Library/Core/Src/usbh_ctlreq.c **** 
 677              		.loc 1 853 14 is_stmt 0 view .LVU231
 678 0142 0025     		movs	r5, #0
 679 0144 73E7     		b	.L19
 680              	.LVL46:
 681              	.L64:
 866:Middlewares/ST/STM32_USB_Host_Library/Core/Src/usbh_ctlreq.c **** 
 682              		.loc 1 866 7 is_stmt 1 view .LVU232
 866:Middlewares/ST/STM32_USB_Host_Library/Core/Src/usbh_ctlreq.c **** 
 683              		.loc 1 866 28 is_stmt 0 view .LVU233
 684 0146 0B23     		movs	r3, #11
 685 0148 2376     		strb	r3, [r4, #24]
 613:Middlewares/ST/STM32_USB_Host_Library/Core/Src/usbh_ctlreq.c ****   USBH_URBStateTypeDef URB_Status = USBH_URB_IDLE;
 686              		.loc 1 613 22 view .LVU234
 687 014a 0125     		movs	r5, #1
 688 014c 6FE7     		b	.L19
 689              	.LVL47:
 690              	.L23:
 897:Middlewares/ST/STM32_USB_Host_Library/Core/Src/usbh_ctlreq.c ****                       0U,
 691              		.loc 1 897 5 is_stmt 1 view .LVU235
 692 014e 0125     		movs	r5, #1
 693 0150 0095     		str	r5, [sp]
 694 0152 4379     		ldrb	r3, [r0, #5]	@ zero_extendqisi2
 695 0154 0022     		movs	r2, #0
 696 0156 1146     		mov	r1, r2
 697 0158 FFF7FEFF 		bl	USBH_CtlSendData
 698              	.LVL48:
 902:Middlewares/ST/STM32_USB_Host_Library/Core/Src/usbh_ctlreq.c ****     phost->Control.state = CTRL_STATUS_OUT_WAIT;
 699              		.loc 1 902 6 view .LVU236
 902:Middlewares/ST/STM32_USB_Host_Library/Core/Src/usbh_ctlreq.c ****     phost->Control.state = CTRL_STATUS_OUT_WAIT;
 700              		.loc 1 902 44 is_stmt 0 view .LVU237
 701 015c D4F8BC33 		ldr	r3, [r4, #956]
 902:Middlewares/ST/STM32_USB_Host_Library/Core/Src/usbh_ctlreq.c ****     phost->Control.state = CTRL_STATUS_OUT_WAIT;
 702              		.loc 1 902 27 view .LVU238
 703 0160 E381     		strh	r3, [r4, #14]	@ movhi
 903:Middlewares/ST/STM32_USB_Host_Library/Core/Src/usbh_ctlreq.c ****     break;
 704              		.loc 1 903 5 is_stmt 1 view .LVU239
 903:Middlewares/ST/STM32_USB_Host_Library/Core/Src/usbh_ctlreq.c ****     break;
 705              		.loc 1 903 26 is_stmt 0 view .LVU240
 706 0162 0A23     		movs	r3, #10
 707 0164 2376     		strb	r3, [r4, #24]
 904:Middlewares/ST/STM32_USB_Host_Library/Core/Src/usbh_ctlreq.c **** 
 708              		.loc 1 904 5 is_stmt 1 view .LVU241
 709 0166 62E7     		b	.L19
 710              	.LVL49:
 711              	.L22:
 908:Middlewares/ST/STM32_USB_Host_Library/Core/Src/usbh_ctlreq.c ****     if  (URB_Status == USBH_URB_DONE)
 712              		.loc 1 908 5 view .LVU242
 908:Middlewares/ST/STM32_USB_Host_Library/Core/Src/usbh_ctlreq.c ****     if  (URB_Status == USBH_URB_DONE)
 713              		.loc 1 908 18 is_stmt 0 view .LVU243
 714 0168 4179     		ldrb	r1, [r0, #5]	@ zero_extendqisi2
 715 016a FFF7FEFF 		bl	USBH_LL_GetURBState
 716              	.LVL50:
ARM GAS  /tmp/ccntKEh2.s 			page 33


 909:Middlewares/ST/STM32_USB_Host_Library/Core/Src/usbh_ctlreq.c ****     {
 717              		.loc 1 909 5 is_stmt 1 view .LVU244
 909:Middlewares/ST/STM32_USB_Host_Library/Core/Src/usbh_ctlreq.c ****     {
 718              		.loc 1 909 9 is_stmt 0 view .LVU245
 719 016e 0128     		cmp	r0, #1
 720 0170 05D0     		beq	.L65
 923:Middlewares/ST/STM32_USB_Host_Library/Core/Src/usbh_ctlreq.c ****     {
 721              		.loc 1 923 10 is_stmt 1 view .LVU246
 923:Middlewares/ST/STM32_USB_Host_Library/Core/Src/usbh_ctlreq.c ****     {
 722              		.loc 1 923 14 is_stmt 0 view .LVU247
 723 0172 0228     		cmp	r0, #2
 724 0174 07D0     		beq	.L66
 938:Middlewares/ST/STM32_USB_Host_Library/Core/Src/usbh_ctlreq.c ****       {
 725              		.loc 1 938 7 is_stmt 1 view .LVU248
 938:Middlewares/ST/STM32_USB_Host_Library/Core/Src/usbh_ctlreq.c ****       {
 726              		.loc 1 938 10 is_stmt 0 view .LVU249
 727 0176 0428     		cmp	r0, #4
 728 0178 09D0     		beq	.L67
 613:Middlewares/ST/STM32_USB_Host_Library/Core/Src/usbh_ctlreq.c ****   USBH_URBStateTypeDef URB_Status = USBH_URB_IDLE;
 729              		.loc 1 613 22 view .LVU250
 730 017a 0125     		movs	r5, #1
 731 017c 57E7     		b	.L19
 732              	.L65:
 911:Middlewares/ST/STM32_USB_Host_Library/Core/Src/usbh_ctlreq.c ****       phost->Control.state = CTRL_COMPLETE;
 733              		.loc 1 911 7 is_stmt 1 view .LVU251
 734              	.LVL51:
 912:Middlewares/ST/STM32_USB_Host_Library/Core/Src/usbh_ctlreq.c **** 
 735              		.loc 1 912 7 view .LVU252
 912:Middlewares/ST/STM32_USB_Host_Library/Core/Src/usbh_ctlreq.c **** 
 736              		.loc 1 912 28 is_stmt 0 view .LVU253
 737 017e 0D23     		movs	r3, #13
 738 0180 2376     		strb	r3, [r4, #24]
 911:Middlewares/ST/STM32_USB_Host_Library/Core/Src/usbh_ctlreq.c ****       phost->Control.state = CTRL_COMPLETE;
 739              		.loc 1 911 14 view .LVU254
 740 0182 0025     		movs	r5, #0
 741 0184 53E7     		b	.L19
 742              	.LVL52:
 743              	.L66:
 925:Middlewares/ST/STM32_USB_Host_Library/Core/Src/usbh_ctlreq.c **** 
 744              		.loc 1 925 7 is_stmt 1 view .LVU255
 925:Middlewares/ST/STM32_USB_Host_Library/Core/Src/usbh_ctlreq.c **** 
 745              		.loc 1 925 28 is_stmt 0 view .LVU256
 746 0186 0923     		movs	r3, #9
 747 0188 2376     		strb	r3, [r4, #24]
 613:Middlewares/ST/STM32_USB_Host_Library/Core/Src/usbh_ctlreq.c ****   USBH_URBStateTypeDef URB_Status = USBH_URB_IDLE;
 748              		.loc 1 613 22 view .LVU257
 749 018a 0125     		movs	r5, #1
 750 018c 4FE7     		b	.L19
 751              	.L67:
 940:Middlewares/ST/STM32_USB_Host_Library/Core/Src/usbh_ctlreq.c **** 
 752              		.loc 1 940 9 is_stmt 1 view .LVU258
 940:Middlewares/ST/STM32_USB_Host_Library/Core/Src/usbh_ctlreq.c **** 
 753              		.loc 1 940 30 is_stmt 0 view .LVU259
 754 018e 0B23     		movs	r3, #11
 755 0190 2376     		strb	r3, [r4, #24]
 613:Middlewares/ST/STM32_USB_Host_Library/Core/Src/usbh_ctlreq.c ****   USBH_URBStateTypeDef URB_Status = USBH_URB_IDLE;
 756              		.loc 1 613 22 view .LVU260
ARM GAS  /tmp/ccntKEh2.s 			page 34


 757 0192 0125     		movs	r5, #1
 758 0194 4BE7     		b	.L19
 759              	.LVL53:
 760              	.L20:
 964:Middlewares/ST/STM32_USB_Host_Library/Core/Src/usbh_ctlreq.c ****     {
 761              		.loc 1 964 5 is_stmt 1 view .LVU261
 964:Middlewares/ST/STM32_USB_Host_Library/Core/Src/usbh_ctlreq.c ****     {
 762              		.loc 1 964 26 is_stmt 0 view .LVU262
 763 0196 437E     		ldrb	r3, [r0, #25]	@ zero_extendqisi2
 964:Middlewares/ST/STM32_USB_Host_Library/Core/Src/usbh_ctlreq.c ****     {
 764              		.loc 1 964 9 view .LVU263
 765 0198 0133     		adds	r3, r3, #1
 766 019a DBB2     		uxtb	r3, r3
 964:Middlewares/ST/STM32_USB_Host_Library/Core/Src/usbh_ctlreq.c ****     {
 767              		.loc 1 964 8 view .LVU264
 768 019c 4376     		strb	r3, [r0, #25]
 769 019e 022B     		cmp	r3, #2
 770 01a0 07D9     		bls	.L68
 975:Middlewares/ST/STM32_USB_Host_Library/Core/Src/usbh_ctlreq.c ****       phost->Control.errorcount = 0U;
 771              		.loc 1 975 7 is_stmt 1 view .LVU265
 975:Middlewares/ST/STM32_USB_Host_Library/Core/Src/usbh_ctlreq.c ****       phost->Control.errorcount = 0U;
 772              		.loc 1 975 12 is_stmt 0 view .LVU266
 773 01a2 D0F8C833 		ldr	r3, [r0, #968]
 975:Middlewares/ST/STM32_USB_Host_Library/Core/Src/usbh_ctlreq.c ****       phost->Control.errorcount = 0U;
 774              		.loc 1 975 7 view .LVU267
 775 01a6 0621     		movs	r1, #6
 776 01a8 9847     		blx	r3
 777              	.LVL54:
 976:Middlewares/ST/STM32_USB_Host_Library/Core/Src/usbh_ctlreq.c ****       USBH_ErrLog("Control error");
 778              		.loc 1 976 7 is_stmt 1 view .LVU268
 976:Middlewares/ST/STM32_USB_Host_Library/Core/Src/usbh_ctlreq.c ****       USBH_ErrLog("Control error");
 779              		.loc 1 976 33 is_stmt 0 view .LVU269
 780 01aa 0023     		movs	r3, #0
 781 01ac 6376     		strb	r3, [r4, #25]
 977:Middlewares/ST/STM32_USB_Host_Library/Core/Src/usbh_ctlreq.c ****       status = USBH_FAIL;
 782              		.loc 1 977 7 is_stmt 1 view .LVU270
 977:Middlewares/ST/STM32_USB_Host_Library/Core/Src/usbh_ctlreq.c ****       status = USBH_FAIL;
 783              		.loc 1 977 7 view .LVU271
 977:Middlewares/ST/STM32_USB_Host_Library/Core/Src/usbh_ctlreq.c ****       status = USBH_FAIL;
 784              		.loc 1 977 7 view .LVU272
 978:Middlewares/ST/STM32_USB_Host_Library/Core/Src/usbh_ctlreq.c ****     }
 785              		.loc 1 978 7 view .LVU273
 786              	.LVL55:
 978:Middlewares/ST/STM32_USB_Host_Library/Core/Src/usbh_ctlreq.c ****     }
 787              		.loc 1 978 14 is_stmt 0 view .LVU274
 788 01ae 0225     		movs	r5, #2
 789 01b0 3DE7     		b	.L19
 790              	.LVL56:
 791              	.L68:
 967:Middlewares/ST/STM32_USB_Host_Library/Core/Src/usbh_ctlreq.c **** 
 792              		.loc 1 967 7 is_stmt 1 view .LVU275
 793 01b2 FFF7FEFF 		bl	USBH_LL_Stop
 794              	.LVL57:
 970:Middlewares/ST/STM32_USB_Host_Library/Core/Src/usbh_ctlreq.c ****       phost->RequestState = CMD_SEND;
 795              		.loc 1 970 7 view .LVU276
 970:Middlewares/ST/STM32_USB_Host_Library/Core/Src/usbh_ctlreq.c ****       phost->RequestState = CMD_SEND;
 796              		.loc 1 970 28 is_stmt 0 view .LVU277
ARM GAS  /tmp/ccntKEh2.s 			page 35


 797 01b6 0125     		movs	r5, #1
 798 01b8 2576     		strb	r5, [r4, #24]
 971:Middlewares/ST/STM32_USB_Host_Library/Core/Src/usbh_ctlreq.c ****     }
 799              		.loc 1 971 7 is_stmt 1 view .LVU278
 971:Middlewares/ST/STM32_USB_Host_Library/Core/Src/usbh_ctlreq.c ****     }
 800              		.loc 1 971 27 is_stmt 0 view .LVU279
 801 01ba A570     		strb	r5, [r4, #2]
 802 01bc 37E7     		b	.L19
 803              	.LVL58:
 804              	.L46:
 616:Middlewares/ST/STM32_USB_Host_Library/Core/Src/usbh_ctlreq.c ****   {
 805              		.loc 1 616 25 view .LVU280
 806 01be 0125     		movs	r5, #1
 807 01c0 35E7     		b	.L19
 808              	.LVL59:
 809              	.L48:
 725:Middlewares/ST/STM32_USB_Host_Library/Core/Src/usbh_ctlreq.c **** 
 810              		.loc 1 725 14 view .LVU281
 811 01c2 0325     		movs	r5, #3
 812 01c4 33E7     		b	.L19
 813              	.L51:
 882:Middlewares/ST/STM32_USB_Host_Library/Core/Src/usbh_ctlreq.c **** 
 814              		.loc 1 882 16 view .LVU282
 815 01c6 0325     		movs	r5, #3
 816 01c8 31E7     		b	.L19
 817              		.cfi_endproc
 818              	.LFE149:
 820              		.section	.text.USBH_GetNextDesc,"ax",%progbits
 821              		.align	1
 822              		.global	USBH_GetNextDesc
 823              		.syntax unified
 824              		.thumb
 825              		.thumb_func
 826              		.fpu fpv4-sp-d16
 828              	USBH_GetNextDesc:
 829              	.LVL60:
 830              	.LFB147:
 523:Middlewares/ST/STM32_USB_Host_Library/Core/Src/usbh_ctlreq.c ****   USBH_DescHeader_t  *pnext;
 831              		.loc 1 523 1 is_stmt 1 view -0
 832              		.cfi_startproc
 833              		@ args = 0, pretend = 0, frame = 0
 834              		@ frame_needed = 0, uses_anonymous_args = 0
 835              		@ link register save eliminated.
 524:Middlewares/ST/STM32_USB_Host_Library/Core/Src/usbh_ctlreq.c **** 
 836              		.loc 1 524 3 view .LVU284
 526:Middlewares/ST/STM32_USB_Host_Library/Core/Src/usbh_ctlreq.c ****   pnext = (USBH_DescHeader_t *)(void *)((uint8_t *)(void *)pbuf + \
 837              		.loc 1 526 3 view .LVU285
 526:Middlewares/ST/STM32_USB_Host_Library/Core/Src/usbh_ctlreq.c ****   pnext = (USBH_DescHeader_t *)(void *)((uint8_t *)(void *)pbuf + \
 838              		.loc 1 526 46 is_stmt 0 view .LVU286
 839 0000 0378     		ldrb	r3, [r0]	@ zero_extendqisi2
 526:Middlewares/ST/STM32_USB_Host_Library/Core/Src/usbh_ctlreq.c ****   pnext = (USBH_DescHeader_t *)(void *)((uint8_t *)(void *)pbuf + \
 840              		.loc 1 526 8 view .LVU287
 841 0002 0A88     		ldrh	r2, [r1]
 842 0004 1344     		add	r3, r3, r2
 843 0006 0B80     		strh	r3, [r1]	@ movhi
 527:Middlewares/ST/STM32_USB_Host_Library/Core/Src/usbh_ctlreq.c ****          ((USBH_DescHeader_t *)(void *)pbuf)->bLength);
 844              		.loc 1 527 3 is_stmt 1 view .LVU288
ARM GAS  /tmp/ccntKEh2.s 			page 36


 528:Middlewares/ST/STM32_USB_Host_Library/Core/Src/usbh_ctlreq.c **** 
 845              		.loc 1 528 45 is_stmt 0 view .LVU289
 846 0008 0378     		ldrb	r3, [r0]	@ zero_extendqisi2
 847              	.LVL61:
 530:Middlewares/ST/STM32_USB_Host_Library/Core/Src/usbh_ctlreq.c **** }
 848              		.loc 1 530 3 is_stmt 1 view .LVU290
 531:Middlewares/ST/STM32_USB_Host_Library/Core/Src/usbh_ctlreq.c **** 
 849              		.loc 1 531 1 is_stmt 0 view .LVU291
 850 000a 1844     		add	r0, r0, r3
 851              	.LVL62:
 531:Middlewares/ST/STM32_USB_Host_Library/Core/Src/usbh_ctlreq.c **** 
 852              		.loc 1 531 1 view .LVU292
 853 000c 7047     		bx	lr
 854              		.cfi_endproc
 855              	.LFE147:
 857              		.section	.text.USBH_ParseCfgDesc,"ax",%progbits
 858              		.align	1
 859              		.syntax unified
 860              		.thumb
 861              		.thumb_func
 862              		.fpu fpv4-sp-d16
 864              	USBH_ParseCfgDesc:
 865              	.LVL63:
 866              	.LFB143:
 380:Middlewares/ST/STM32_USB_Host_Library/Core/Src/usbh_ctlreq.c ****   USBH_InterfaceDescTypeDef    *pif ;
 867              		.loc 1 380 1 is_stmt 1 view -0
 868              		.cfi_startproc
 869              		@ args = 0, pretend = 0, frame = 8
 870              		@ frame_needed = 0, uses_anonymous_args = 0
 380:Middlewares/ST/STM32_USB_Host_Library/Core/Src/usbh_ctlreq.c ****   USBH_InterfaceDescTypeDef    *pif ;
 871              		.loc 1 380 1 is_stmt 0 view .LVU294
 872 0000 2DE9F041 		push	{r4, r5, r6, r7, r8, lr}
 873              	.LCFI8:
 874              		.cfi_def_cfa_offset 24
 875              		.cfi_offset 4, -24
 876              		.cfi_offset 5, -20
 877              		.cfi_offset 6, -16
 878              		.cfi_offset 7, -12
 879              		.cfi_offset 8, -8
 880              		.cfi_offset 14, -4
 881 0004 82B0     		sub	sp, sp, #8
 882              	.LCFI9:
 883              		.cfi_def_cfa_offset 32
 884 0006 0C46     		mov	r4, r1
 381:Middlewares/ST/STM32_USB_Host_Library/Core/Src/usbh_ctlreq.c ****   USBH_EpDescTypeDef           *pep;
 885              		.loc 1 381 3 is_stmt 1 view .LVU295
 382:Middlewares/ST/STM32_USB_Host_Library/Core/Src/usbh_ctlreq.c ****   USBH_DescHeader_t            *pdesc = (USBH_DescHeader_t *)(void *)buf;
 886              		.loc 1 382 3 view .LVU296
 383:Middlewares/ST/STM32_USB_Host_Library/Core/Src/usbh_ctlreq.c ****   uint16_t                     ptr;
 887              		.loc 1 383 3 view .LVU297
 888              	.LVL64:
 384:Middlewares/ST/STM32_USB_Host_Library/Core/Src/usbh_ctlreq.c ****   uint8_t                      if_ix = 0U;
 889              		.loc 1 384 3 view .LVU298
 385:Middlewares/ST/STM32_USB_Host_Library/Core/Src/usbh_ctlreq.c ****   uint8_t                      ep_ix = 0U;
 890              		.loc 1 385 3 view .LVU299
 386:Middlewares/ST/STM32_USB_Host_Library/Core/Src/usbh_ctlreq.c **** 
 891              		.loc 1 386 3 view .LVU300
ARM GAS  /tmp/ccntKEh2.s 			page 37


 388:Middlewares/ST/STM32_USB_Host_Library/Core/Src/usbh_ctlreq.c **** 
 892              		.loc 1 388 3 view .LVU301
 391:Middlewares/ST/STM32_USB_Host_Library/Core/Src/usbh_ctlreq.c ****   cfg_desc->bDescriptorType     = *(uint8_t  *) (buf + 1);
 893              		.loc 1 391 3 view .LVU302
 391:Middlewares/ST/STM32_USB_Host_Library/Core/Src/usbh_ctlreq.c ****   cfg_desc->bDescriptorType     = *(uint8_t  *) (buf + 1);
 894              		.loc 1 391 35 is_stmt 0 view .LVU303
 895 0008 0B78     		ldrb	r3, [r1]	@ zero_extendqisi2
 391:Middlewares/ST/STM32_USB_Host_Library/Core/Src/usbh_ctlreq.c ****   cfg_desc->bDescriptorType     = *(uint8_t  *) (buf + 1);
 896              		.loc 1 391 33 view .LVU304
 897 000a 0370     		strb	r3, [r0]
 392:Middlewares/ST/STM32_USB_Host_Library/Core/Src/usbh_ctlreq.c ****   cfg_desc->wTotalLength        = LE16 (buf + 2);
 898              		.loc 1 392 3 is_stmt 1 view .LVU305
 392:Middlewares/ST/STM32_USB_Host_Library/Core/Src/usbh_ctlreq.c ****   cfg_desc->wTotalLength        = LE16 (buf + 2);
 899              		.loc 1 392 33 is_stmt 0 view .LVU306
 900 000c 4B78     		ldrb	r3, [r1, #1]	@ zero_extendqisi2
 901 000e 4370     		strb	r3, [r0, #1]
 393:Middlewares/ST/STM32_USB_Host_Library/Core/Src/usbh_ctlreq.c ****   cfg_desc->bNumInterfaces      = *(uint8_t  *) (buf + 4);
 902              		.loc 1 393 3 is_stmt 1 view .LVU307
 393:Middlewares/ST/STM32_USB_Host_Library/Core/Src/usbh_ctlreq.c ****   cfg_desc->bNumInterfaces      = *(uint8_t  *) (buf + 4);
 903              		.loc 1 393 35 is_stmt 0 view .LVU308
 904 0010 8B78     		ldrb	r3, [r1, #2]	@ zero_extendqisi2
 905 0012 C978     		ldrb	r1, [r1, #3]	@ zero_extendqisi2
 906              	.LVL65:
 393:Middlewares/ST/STM32_USB_Host_Library/Core/Src/usbh_ctlreq.c ****   cfg_desc->bNumInterfaces      = *(uint8_t  *) (buf + 4);
 907              		.loc 1 393 35 view .LVU309
 908 0014 43EA0123 		orr	r3, r3, r1, lsl #8
 393:Middlewares/ST/STM32_USB_Host_Library/Core/Src/usbh_ctlreq.c ****   cfg_desc->bNumInterfaces      = *(uint8_t  *) (buf + 4);
 909              		.loc 1 393 33 view .LVU310
 910 0018 4380     		strh	r3, [r0, #2]	@ movhi
 394:Middlewares/ST/STM32_USB_Host_Library/Core/Src/usbh_ctlreq.c ****   cfg_desc->bConfigurationValue = *(uint8_t  *) (buf + 5);
 911              		.loc 1 394 3 is_stmt 1 view .LVU311
 394:Middlewares/ST/STM32_USB_Host_Library/Core/Src/usbh_ctlreq.c ****   cfg_desc->bConfigurationValue = *(uint8_t  *) (buf + 5);
 912              		.loc 1 394 33 is_stmt 0 view .LVU312
 913 001a 2379     		ldrb	r3, [r4, #4]	@ zero_extendqisi2
 914 001c 0371     		strb	r3, [r0, #4]
 395:Middlewares/ST/STM32_USB_Host_Library/Core/Src/usbh_ctlreq.c ****   cfg_desc->iConfiguration      = *(uint8_t  *) (buf + 6);
 915              		.loc 1 395 3 is_stmt 1 view .LVU313
 395:Middlewares/ST/STM32_USB_Host_Library/Core/Src/usbh_ctlreq.c ****   cfg_desc->iConfiguration      = *(uint8_t  *) (buf + 6);
 916              		.loc 1 395 33 is_stmt 0 view .LVU314
 917 001e 6379     		ldrb	r3, [r4, #5]	@ zero_extendqisi2
 918 0020 4371     		strb	r3, [r0, #5]
 396:Middlewares/ST/STM32_USB_Host_Library/Core/Src/usbh_ctlreq.c ****   cfg_desc->bmAttributes        = *(uint8_t  *) (buf + 7);
 919              		.loc 1 396 3 is_stmt 1 view .LVU315
 396:Middlewares/ST/STM32_USB_Host_Library/Core/Src/usbh_ctlreq.c ****   cfg_desc->bmAttributes        = *(uint8_t  *) (buf + 7);
 920              		.loc 1 396 33 is_stmt 0 view .LVU316
 921 0022 A379     		ldrb	r3, [r4, #6]	@ zero_extendqisi2
 922 0024 8371     		strb	r3, [r0, #6]
 397:Middlewares/ST/STM32_USB_Host_Library/Core/Src/usbh_ctlreq.c ****   cfg_desc->bMaxPower           = *(uint8_t  *) (buf + 8);
 923              		.loc 1 397 3 is_stmt 1 view .LVU317
 397:Middlewares/ST/STM32_USB_Host_Library/Core/Src/usbh_ctlreq.c ****   cfg_desc->bMaxPower           = *(uint8_t  *) (buf + 8);
 924              		.loc 1 397 33 is_stmt 0 view .LVU318
 925 0026 E379     		ldrb	r3, [r4, #7]	@ zero_extendqisi2
 926 0028 C371     		strb	r3, [r0, #7]
 398:Middlewares/ST/STM32_USB_Host_Library/Core/Src/usbh_ctlreq.c **** 
 927              		.loc 1 398 3 is_stmt 1 view .LVU319
 398:Middlewares/ST/STM32_USB_Host_Library/Core/Src/usbh_ctlreq.c **** 
 928              		.loc 1 398 33 is_stmt 0 view .LVU320
ARM GAS  /tmp/ccntKEh2.s 			page 38


 929 002a 237A     		ldrb	r3, [r4, #8]	@ zero_extendqisi2
 930 002c 0372     		strb	r3, [r0, #8]
 401:Middlewares/ST/STM32_USB_Host_Library/Core/Src/usbh_ctlreq.c ****   {
 931              		.loc 1 401 3 is_stmt 1 view .LVU321
 401:Middlewares/ST/STM32_USB_Host_Library/Core/Src/usbh_ctlreq.c ****   {
 932              		.loc 1 401 6 is_stmt 0 view .LVU322
 933 002e 092A     		cmp	r2, #9
 934 0030 44D9     		bls	.L70
 935 0032 0546     		mov	r5, r0
 403:Middlewares/ST/STM32_USB_Host_Library/Core/Src/usbh_ctlreq.c ****     pif = (USBH_InterfaceDescTypeDef *)0;
 936              		.loc 1 403 5 is_stmt 1 view .LVU323
 403:Middlewares/ST/STM32_USB_Host_Library/Core/Src/usbh_ctlreq.c ****     pif = (USBH_InterfaceDescTypeDef *)0;
 937              		.loc 1 403 9 is_stmt 0 view .LVU324
 938 0034 0923     		movs	r3, #9
 939 0036 ADF80630 		strh	r3, [sp, #6]	@ movhi
 404:Middlewares/ST/STM32_USB_Host_Library/Core/Src/usbh_ctlreq.c **** 
 940              		.loc 1 404 5 is_stmt 1 view .LVU325
 941              	.LVL66:
 407:Middlewares/ST/STM32_USB_Host_Library/Core/Src/usbh_ctlreq.c ****     {
 942              		.loc 1 407 5 view .LVU326
 385:Middlewares/ST/STM32_USB_Host_Library/Core/Src/usbh_ctlreq.c ****   uint8_t                      ep_ix = 0U;
 943              		.loc 1 385 32 is_stmt 0 view .LVU327
 944 003a 0026     		movs	r6, #0
 945              	.LVL67:
 946              	.L73:
 407:Middlewares/ST/STM32_USB_Host_Library/Core/Src/usbh_ctlreq.c ****     {
 947              		.loc 1 407 11 is_stmt 1 view .LVU328
 948 003c 012E     		cmp	r6, #1
 949 003e 3DD8     		bhi	.L70
 407:Middlewares/ST/STM32_USB_Host_Library/Core/Src/usbh_ctlreq.c ****     {
 950              		.loc 1 407 64 is_stmt 0 discriminator 1 view .LVU329
 951 0040 6A88     		ldrh	r2, [r5, #2]
 407:Middlewares/ST/STM32_USB_Host_Library/Core/Src/usbh_ctlreq.c ****     {
 952              		.loc 1 407 54 discriminator 1 view .LVU330
 953 0042 BDF80630 		ldrh	r3, [sp, #6]
 407:Middlewares/ST/STM32_USB_Host_Library/Core/Src/usbh_ctlreq.c ****     {
 954              		.loc 1 407 46 discriminator 1 view .LVU331
 955 0046 9A42     		cmp	r2, r3
 956 0048 38D9     		bls	.L70
 409:Middlewares/ST/STM32_USB_Host_Library/Core/Src/usbh_ctlreq.c ****       if (pdesc->bDescriptorType   == USB_DESC_TYPE_INTERFACE)
 957              		.loc 1 409 7 is_stmt 1 view .LVU332
 409:Middlewares/ST/STM32_USB_Host_Library/Core/Src/usbh_ctlreq.c ****       if (pdesc->bDescriptorType   == USB_DESC_TYPE_INTERFACE)
 958              		.loc 1 409 15 is_stmt 0 view .LVU333
 959 004a 0DF10601 		add	r1, sp, #6
 960 004e 2046     		mov	r0, r4
 961 0050 FFF7FEFF 		bl	USBH_GetNextDesc
 962              	.LVL68:
 963 0054 0446     		mov	r4, r0
 964              	.LVL69:
 410:Middlewares/ST/STM32_USB_Host_Library/Core/Src/usbh_ctlreq.c ****       {
 965              		.loc 1 410 7 is_stmt 1 view .LVU334
 410:Middlewares/ST/STM32_USB_Host_Library/Core/Src/usbh_ctlreq.c ****       {
 966              		.loc 1 410 16 is_stmt 0 view .LVU335
 967 0056 4378     		ldrb	r3, [r0, #1]	@ zero_extendqisi2
 410:Middlewares/ST/STM32_USB_Host_Library/Core/Src/usbh_ctlreq.c ****       {
 968              		.loc 1 410 10 view .LVU336
 969 0058 042B     		cmp	r3, #4
ARM GAS  /tmp/ccntKEh2.s 			page 39


 970 005a EFD1     		bne	.L73
 412:Middlewares/ST/STM32_USB_Host_Library/Core/Src/usbh_ctlreq.c ****         USBH_ParseInterfaceDesc (pif, (uint8_t *)(void *)pdesc);
 971              		.loc 1 412 9 is_stmt 1 view .LVU337
 412:Middlewares/ST/STM32_USB_Host_Library/Core/Src/usbh_ctlreq.c ****         USBH_ParseInterfaceDesc (pif, (uint8_t *)(void *)pdesc);
 972              		.loc 1 412 34 is_stmt 0 view .LVU338
 973 005c B046     		mov	r8, r6
 412:Middlewares/ST/STM32_USB_Host_Library/Core/Src/usbh_ctlreq.c ****         USBH_ParseInterfaceDesc (pif, (uint8_t *)(void *)pdesc);
 974              		.loc 1 412 13 view .LVU339
 975 005e 1A20     		movs	r0, #26
 976              	.LVL70:
 412:Middlewares/ST/STM32_USB_Host_Library/Core/Src/usbh_ctlreq.c ****         USBH_ParseInterfaceDesc (pif, (uint8_t *)(void *)pdesc);
 977              		.loc 1 412 13 view .LVU340
 978 0060 00FB06F0 		mul	r0, r0, r6
 979 0064 0830     		adds	r0, r0, #8
 980 0066 2844     		add	r0, r0, r5
 981              	.LVL71:
 413:Middlewares/ST/STM32_USB_Host_Library/Core/Src/usbh_ctlreq.c **** 
 982              		.loc 1 413 9 is_stmt 1 view .LVU341
 983 0068 2146     		mov	r1, r4
 984 006a 0230     		adds	r0, r0, #2
 985              	.LVL72:
 413:Middlewares/ST/STM32_USB_Host_Library/Core/Src/usbh_ctlreq.c **** 
 986              		.loc 1 413 9 is_stmt 0 view .LVU342
 987 006c FFF7FEFF 		bl	USBH_ParseInterfaceDesc
 988              	.LVL73:
 415:Middlewares/ST/STM32_USB_Host_Library/Core/Src/usbh_ctlreq.c ****         pep = (USBH_EpDescTypeDef *)0;
 989              		.loc 1 415 9 is_stmt 1 view .LVU343
 416:Middlewares/ST/STM32_USB_Host_Library/Core/Src/usbh_ctlreq.c ****         while ((ep_ix < pif->bNumEndpoints) && (ptr < cfg_desc->wTotalLength))
 990              		.loc 1 416 9 view .LVU344
 417:Middlewares/ST/STM32_USB_Host_Library/Core/Src/usbh_ctlreq.c ****         {
 991              		.loc 1 417 9 view .LVU345
 415:Middlewares/ST/STM32_USB_Host_Library/Core/Src/usbh_ctlreq.c ****         pep = (USBH_EpDescTypeDef *)0;
 992              		.loc 1 415 15 is_stmt 0 view .LVU346
 993 0070 0027     		movs	r7, #0
 994              	.LVL74:
 995              	.L74:
 417:Middlewares/ST/STM32_USB_Host_Library/Core/Src/usbh_ctlreq.c ****         {
 996              		.loc 1 417 15 is_stmt 1 view .LVU347
 417:Middlewares/ST/STM32_USB_Host_Library/Core/Src/usbh_ctlreq.c ****         {
 997              		.loc 1 417 28 is_stmt 0 view .LVU348
 998 0072 1A23     		movs	r3, #26
 999              	.LVL75:
 417:Middlewares/ST/STM32_USB_Host_Library/Core/Src/usbh_ctlreq.c ****         {
 1000              		.loc 1 417 28 view .LVU349
 1001 0074 03FB0853 		mla	r3, r3, r8, r5
 1002              	.LVL76:
 417:Middlewares/ST/STM32_USB_Host_Library/Core/Src/usbh_ctlreq.c ****         {
 1003              		.loc 1 417 28 view .LVU350
 1004 0078 9B7B     		ldrb	r3, [r3, #14]	@ zero_extendqisi2
 417:Middlewares/ST/STM32_USB_Host_Library/Core/Src/usbh_ctlreq.c ****         {
 1005              		.loc 1 417 15 view .LVU351
 1006 007a BB42     		cmp	r3, r7
 1007 007c 1BD9     		bls	.L76
 417:Middlewares/ST/STM32_USB_Host_Library/Core/Src/usbh_ctlreq.c ****         {
 1008              		.loc 1 417 63 discriminator 1 view .LVU352
 1009 007e 6A88     		ldrh	r2, [r5, #2]
 417:Middlewares/ST/STM32_USB_Host_Library/Core/Src/usbh_ctlreq.c ****         {
ARM GAS  /tmp/ccntKEh2.s 			page 40


 1010              		.loc 1 417 53 discriminator 1 view .LVU353
 1011 0080 BDF80630 		ldrh	r3, [sp, #6]
 417:Middlewares/ST/STM32_USB_Host_Library/Core/Src/usbh_ctlreq.c ****         {
 1012              		.loc 1 417 45 discriminator 1 view .LVU354
 1013 0084 9A42     		cmp	r2, r3
 1014 0086 16D9     		bls	.L76
 419:Middlewares/ST/STM32_USB_Host_Library/Core/Src/usbh_ctlreq.c ****           if (pdesc->bDescriptorType   == USB_DESC_TYPE_ENDPOINT)
 1015              		.loc 1 419 11 is_stmt 1 view .LVU355
 419:Middlewares/ST/STM32_USB_Host_Library/Core/Src/usbh_ctlreq.c ****           if (pdesc->bDescriptorType   == USB_DESC_TYPE_ENDPOINT)
 1016              		.loc 1 419 19 is_stmt 0 view .LVU356
 1017 0088 0DF10601 		add	r1, sp, #6
 1018 008c 2046     		mov	r0, r4
 1019 008e FFF7FEFF 		bl	USBH_GetNextDesc
 1020              	.LVL77:
 1021 0092 0446     		mov	r4, r0
 1022              	.LVL78:
 420:Middlewares/ST/STM32_USB_Host_Library/Core/Src/usbh_ctlreq.c ****           {
 1023              		.loc 1 420 11 is_stmt 1 view .LVU357
 420:Middlewares/ST/STM32_USB_Host_Library/Core/Src/usbh_ctlreq.c ****           {
 1024              		.loc 1 420 20 is_stmt 0 view .LVU358
 1025 0094 4378     		ldrb	r3, [r0, #1]	@ zero_extendqisi2
 420:Middlewares/ST/STM32_USB_Host_Library/Core/Src/usbh_ctlreq.c ****           {
 1026              		.loc 1 420 14 view .LVU359
 1027 0096 052B     		cmp	r3, #5
 1028 0098 EBD1     		bne	.L74
 422:Middlewares/ST/STM32_USB_Host_Library/Core/Src/usbh_ctlreq.c ****             USBH_ParseEPDesc (pep, (uint8_t *)(void *)pdesc);
 1029              		.loc 1 422 13 is_stmt 1 view .LVU360
 422:Middlewares/ST/STM32_USB_Host_Library/Core/Src/usbh_ctlreq.c ****             USBH_ParseEPDesc (pep, (uint8_t *)(void *)pdesc);
 1030              		.loc 1 422 17 is_stmt 0 view .LVU361
 1031 009a 0137     		adds	r7, r7, #1
 1032              	.LVL79:
 422:Middlewares/ST/STM32_USB_Host_Library/Core/Src/usbh_ctlreq.c ****             USBH_ParseEPDesc (pep, (uint8_t *)(void *)pdesc);
 1033              		.loc 1 422 17 view .LVU362
 1034 009c 1A20     		movs	r0, #26
 1035              	.LVL80:
 422:Middlewares/ST/STM32_USB_Host_Library/Core/Src/usbh_ctlreq.c ****             USBH_ParseEPDesc (pep, (uint8_t *)(void *)pdesc);
 1036              		.loc 1 422 17 view .LVU363
 1037 009e 00FB08F0 		mul	r0, r0, r8
 1038              	.LVL81:
 422:Middlewares/ST/STM32_USB_Host_Library/Core/Src/usbh_ctlreq.c ****             USBH_ParseEPDesc (pep, (uint8_t *)(void *)pdesc);
 1039              		.loc 1 422 17 view .LVU364
 1040 00a2 00EBC700 		add	r0, r0, r7, lsl #3
 1041 00a6 0830     		adds	r0, r0, #8
 1042 00a8 2844     		add	r0, r0, r5
 1043              	.LVL82:
 423:Middlewares/ST/STM32_USB_Host_Library/Core/Src/usbh_ctlreq.c ****             ep_ix++;
 1044              		.loc 1 423 13 is_stmt 1 view .LVU365
 1045 00aa 2146     		mov	r1, r4
 1046 00ac 0430     		adds	r0, r0, #4
 1047              	.LVL83:
 423:Middlewares/ST/STM32_USB_Host_Library/Core/Src/usbh_ctlreq.c ****             ep_ix++;
 1048              		.loc 1 423 13 is_stmt 0 view .LVU366
 1049 00ae FFF7FEFF 		bl	USBH_ParseEPDesc
 1050              	.LVL84:
 424:Middlewares/ST/STM32_USB_Host_Library/Core/Src/usbh_ctlreq.c ****           }
 1051              		.loc 1 424 13 is_stmt 1 view .LVU367
 424:Middlewares/ST/STM32_USB_Host_Library/Core/Src/usbh_ctlreq.c ****           }
ARM GAS  /tmp/ccntKEh2.s 			page 41


 1052              		.loc 1 424 18 is_stmt 0 view .LVU368
 1053 00b2 FFB2     		uxtb	r7, r7
 1054              	.LVL85:
 424:Middlewares/ST/STM32_USB_Host_Library/Core/Src/usbh_ctlreq.c ****           }
 1055              		.loc 1 424 18 view .LVU369
 1056 00b4 DDE7     		b	.L74
 1057              	.L76:
 427:Middlewares/ST/STM32_USB_Host_Library/Core/Src/usbh_ctlreq.c ****       }
 1058              		.loc 1 427 9 is_stmt 1 view .LVU370
 427:Middlewares/ST/STM32_USB_Host_Library/Core/Src/usbh_ctlreq.c ****       }
 1059              		.loc 1 427 14 is_stmt 0 view .LVU371
 1060 00b6 0136     		adds	r6, r6, #1
 1061              	.LVL86:
 427:Middlewares/ST/STM32_USB_Host_Library/Core/Src/usbh_ctlreq.c ****       }
 1062              		.loc 1 427 14 view .LVU372
 1063 00b8 F6B2     		uxtb	r6, r6
 1064              	.LVL87:
 427:Middlewares/ST/STM32_USB_Host_Library/Core/Src/usbh_ctlreq.c ****       }
 1065              		.loc 1 427 14 view .LVU373
 1066 00ba BFE7     		b	.L73
 1067              	.LVL88:
 1068              	.L70:
 431:Middlewares/ST/STM32_USB_Host_Library/Core/Src/usbh_ctlreq.c **** 
 1069              		.loc 1 431 1 view .LVU374
 1070 00bc 02B0     		add	sp, sp, #8
 1071              	.LCFI10:
 1072              		.cfi_def_cfa_offset 24
 1073              		@ sp needed
 1074 00be BDE8F081 		pop	{r4, r5, r6, r7, r8, pc}
 431:Middlewares/ST/STM32_USB_Host_Library/Core/Src/usbh_ctlreq.c **** 
 1075              		.loc 1 431 1 view .LVU375
 1076              		.cfi_endproc
 1077              	.LFE143:
 1079              		.section	.text.USBH_CtlReq,"ax",%progbits
 1080              		.align	1
 1081              		.global	USBH_CtlReq
 1082              		.syntax unified
 1083              		.thumb
 1084              		.thumb_func
 1085              		.fpu fpv4-sp-d16
 1087              	USBH_CtlReq:
 1088              	.LVL89:
 1089              	.LFB148:
 547:Middlewares/ST/STM32_USB_Host_Library/Core/Src/usbh_ctlreq.c ****   USBH_StatusTypeDef status;
 1090              		.loc 1 547 1 is_stmt 1 view -0
 1091              		.cfi_startproc
 1092              		@ args = 0, pretend = 0, frame = 0
 1093              		@ frame_needed = 0, uses_anonymous_args = 0
 547:Middlewares/ST/STM32_USB_Host_Library/Core/Src/usbh_ctlreq.c ****   USBH_StatusTypeDef status;
 1094              		.loc 1 547 1 is_stmt 0 view .LVU377
 1095 0000 10B5     		push	{r4, lr}
 1096              	.LCFI11:
 1097              		.cfi_def_cfa_offset 8
 1098              		.cfi_offset 4, -8
 1099              		.cfi_offset 14, -4
 1100 0002 0446     		mov	r4, r0
 548:Middlewares/ST/STM32_USB_Host_Library/Core/Src/usbh_ctlreq.c ****   status = USBH_BUSY;
ARM GAS  /tmp/ccntKEh2.s 			page 42


 1101              		.loc 1 548 3 is_stmt 1 view .LVU378
 549:Middlewares/ST/STM32_USB_Host_Library/Core/Src/usbh_ctlreq.c **** 
 1102              		.loc 1 549 3 view .LVU379
 1103              	.LVL90:
 551:Middlewares/ST/STM32_USB_Host_Library/Core/Src/usbh_ctlreq.c ****   {
 1104              		.loc 1 551 3 view .LVU380
 551:Middlewares/ST/STM32_USB_Host_Library/Core/Src/usbh_ctlreq.c ****   {
 1105              		.loc 1 551 16 is_stmt 0 view .LVU381
 1106 0004 8078     		ldrb	r0, [r0, #2]	@ zero_extendqisi2
 1107              	.LVL91:
 551:Middlewares/ST/STM32_USB_Host_Library/Core/Src/usbh_ctlreq.c ****   {
 1108              		.loc 1 551 3 view .LVU382
 1109 0006 0128     		cmp	r0, #1
 1110 0008 03D0     		beq	.L81
 1111 000a 0228     		cmp	r0, #2
 1112 000c 08D0     		beq	.L82
 1113 000e 0120     		movs	r0, #1
 1114              	.LVL92:
 1115              	.L83:
 601:Middlewares/ST/STM32_USB_Host_Library/Core/Src/usbh_ctlreq.c **** }
 1116              		.loc 1 601 3 is_stmt 1 view .LVU383
 602:Middlewares/ST/STM32_USB_Host_Library/Core/Src/usbh_ctlreq.c **** 
 1117              		.loc 1 602 1 is_stmt 0 view .LVU384
 1118 0010 10BD     		pop	{r4, pc}
 1119              	.LVL93:
 1120              	.L81:
 555:Middlewares/ST/STM32_USB_Host_Library/Core/Src/usbh_ctlreq.c ****     phost->Control.length = length;
 1121              		.loc 1 555 5 is_stmt 1 view .LVU385
 555:Middlewares/ST/STM32_USB_Host_Library/Core/Src/usbh_ctlreq.c ****     phost->Control.length = length;
 1122              		.loc 1 555 25 is_stmt 0 view .LVU386
 1123 0012 A160     		str	r1, [r4, #8]
 556:Middlewares/ST/STM32_USB_Host_Library/Core/Src/usbh_ctlreq.c ****     phost->Control.state = CTRL_SETUP;
 1124              		.loc 1 556 5 is_stmt 1 view .LVU387
 556:Middlewares/ST/STM32_USB_Host_Library/Core/Src/usbh_ctlreq.c ****     phost->Control.state = CTRL_SETUP;
 1125              		.loc 1 556 27 is_stmt 0 view .LVU388
 1126 0014 A281     		strh	r2, [r4, #12]	@ movhi
 557:Middlewares/ST/STM32_USB_Host_Library/Core/Src/usbh_ctlreq.c ****     phost->RequestState = CMD_WAIT;
 1127              		.loc 1 557 5 is_stmt 1 view .LVU389
 557:Middlewares/ST/STM32_USB_Host_Library/Core/Src/usbh_ctlreq.c ****     phost->RequestState = CMD_WAIT;
 1128              		.loc 1 557 26 is_stmt 0 view .LVU390
 1129 0016 0123     		movs	r3, #1
 1130 0018 2376     		strb	r3, [r4, #24]
 558:Middlewares/ST/STM32_USB_Host_Library/Core/Src/usbh_ctlreq.c ****     status = USBH_BUSY;
 1131              		.loc 1 558 5 is_stmt 1 view .LVU391
 558:Middlewares/ST/STM32_USB_Host_Library/Core/Src/usbh_ctlreq.c ****     status = USBH_BUSY;
 1132              		.loc 1 558 25 is_stmt 0 view .LVU392
 1133 001a 0223     		movs	r3, #2
 1134 001c A370     		strb	r3, [r4, #2]
 559:Middlewares/ST/STM32_USB_Host_Library/Core/Src/usbh_ctlreq.c **** 
 1135              		.loc 1 559 5 is_stmt 1 view .LVU393
 569:Middlewares/ST/STM32_USB_Host_Library/Core/Src/usbh_ctlreq.c **** 
 1136              		.loc 1 569 5 view .LVU394
 1137 001e F7E7     		b	.L83
 1138              	.L82:
 572:Middlewares/ST/STM32_USB_Host_Library/Core/Src/usbh_ctlreq.c ****     if (status == USBH_OK)
 1139              		.loc 1 572 5 view .LVU395
 572:Middlewares/ST/STM32_USB_Host_Library/Core/Src/usbh_ctlreq.c ****     if (status == USBH_OK)
ARM GAS  /tmp/ccntKEh2.s 			page 43


 1140              		.loc 1 572 14 is_stmt 0 view .LVU396
 1141 0020 2046     		mov	r0, r4
 1142 0022 FFF7FEFF 		bl	USBH_HandleControl
 1143              	.LVL94:
 573:Middlewares/ST/STM32_USB_Host_Library/Core/Src/usbh_ctlreq.c ****     {
 1144              		.loc 1 573 5 is_stmt 1 view .LVU397
 573:Middlewares/ST/STM32_USB_Host_Library/Core/Src/usbh_ctlreq.c ****     {
 1145              		.loc 1 573 8 is_stmt 0 view .LVU398
 1146 0026 20B9     		cbnz	r0, .L84
 576:Middlewares/ST/STM32_USB_Host_Library/Core/Src/usbh_ctlreq.c ****       phost->Control.state =CTRL_IDLE;
 1147              		.loc 1 576 7 is_stmt 1 view .LVU399
 576:Middlewares/ST/STM32_USB_Host_Library/Core/Src/usbh_ctlreq.c ****       phost->Control.state =CTRL_IDLE;
 1148              		.loc 1 576 27 is_stmt 0 view .LVU400
 1149 0028 0123     		movs	r3, #1
 1150 002a A370     		strb	r3, [r4, #2]
 577:Middlewares/ST/STM32_USB_Host_Library/Core/Src/usbh_ctlreq.c ****       status = USBH_OK;
 1151              		.loc 1 577 7 is_stmt 1 view .LVU401
 577:Middlewares/ST/STM32_USB_Host_Library/Core/Src/usbh_ctlreq.c ****       status = USBH_OK;
 1152              		.loc 1 577 28 is_stmt 0 view .LVU402
 1153 002c 0023     		movs	r3, #0
 1154 002e 2376     		strb	r3, [r4, #24]
 578:Middlewares/ST/STM32_USB_Host_Library/Core/Src/usbh_ctlreq.c ****     }
 1155              		.loc 1 578 7 is_stmt 1 view .LVU403
 1156              	.LVL95:
 578:Middlewares/ST/STM32_USB_Host_Library/Core/Src/usbh_ctlreq.c ****     }
 1157              		.loc 1 578 7 is_stmt 0 view .LVU404
 1158 0030 EEE7     		b	.L83
 1159              	.LVL96:
 1160              	.L84:
 580:Middlewares/ST/STM32_USB_Host_Library/Core/Src/usbh_ctlreq.c ****     {
 1161              		.loc 1 580 10 is_stmt 1 view .LVU405
 580:Middlewares/ST/STM32_USB_Host_Library/Core/Src/usbh_ctlreq.c ****     {
 1162              		.loc 1 580 13 is_stmt 0 view .LVU406
 1163 0032 0328     		cmp	r0, #3
 1164 0034 04D0     		beq	.L87
 589:Middlewares/ST/STM32_USB_Host_Library/Core/Src/usbh_ctlreq.c ****       {
 1165              		.loc 1 589 7 is_stmt 1 view .LVU407
 589:Middlewares/ST/STM32_USB_Host_Library/Core/Src/usbh_ctlreq.c ****       {
 1166              		.loc 1 589 10 is_stmt 0 view .LVU408
 1167 0036 0228     		cmp	r0, #2
 1168 0038 EAD1     		bne	.L83
 592:Middlewares/ST/STM32_USB_Host_Library/Core/Src/usbh_ctlreq.c ****         status = USBH_FAIL;
 1169              		.loc 1 592 9 is_stmt 1 view .LVU409
 592:Middlewares/ST/STM32_USB_Host_Library/Core/Src/usbh_ctlreq.c ****         status = USBH_FAIL;
 1170              		.loc 1 592 29 is_stmt 0 view .LVU410
 1171 003a 0123     		movs	r3, #1
 1172 003c A370     		strb	r3, [r4, #2]
 593:Middlewares/ST/STM32_USB_Host_Library/Core/Src/usbh_ctlreq.c ****       }
 1173              		.loc 1 593 9 is_stmt 1 view .LVU411
 1174              	.LVL97:
 593:Middlewares/ST/STM32_USB_Host_Library/Core/Src/usbh_ctlreq.c ****       }
 1175              		.loc 1 593 9 is_stmt 0 view .LVU412
 1176 003e E7E7     		b	.L83
 1177              	.LVL98:
 1178              	.L87:
 583:Middlewares/ST/STM32_USB_Host_Library/Core/Src/usbh_ctlreq.c ****       phost->Control.state = CTRL_IDLE;
 1179              		.loc 1 583 7 is_stmt 1 view .LVU413
ARM GAS  /tmp/ccntKEh2.s 			page 44


 583:Middlewares/ST/STM32_USB_Host_Library/Core/Src/usbh_ctlreq.c ****       phost->Control.state = CTRL_IDLE;
 1180              		.loc 1 583 27 is_stmt 0 view .LVU414
 1181 0040 0123     		movs	r3, #1
 1182 0042 A370     		strb	r3, [r4, #2]
 584:Middlewares/ST/STM32_USB_Host_Library/Core/Src/usbh_ctlreq.c ****       status = USBH_NOT_SUPPORTED;
 1183              		.loc 1 584 7 is_stmt 1 view .LVU415
 584:Middlewares/ST/STM32_USB_Host_Library/Core/Src/usbh_ctlreq.c ****       status = USBH_NOT_SUPPORTED;
 1184              		.loc 1 584 28 is_stmt 0 view .LVU416
 1185 0044 0023     		movs	r3, #0
 1186 0046 2376     		strb	r3, [r4, #24]
 585:Middlewares/ST/STM32_USB_Host_Library/Core/Src/usbh_ctlreq.c ****     }
 1187              		.loc 1 585 7 is_stmt 1 view .LVU417
 1188              	.LVL99:
 585:Middlewares/ST/STM32_USB_Host_Library/Core/Src/usbh_ctlreq.c ****     }
 1189              		.loc 1 585 7 is_stmt 0 view .LVU418
 1190 0048 E2E7     		b	.L83
 1191              		.cfi_endproc
 1192              	.LFE148:
 1194              		.section	.text.USBH_GetDescriptor,"ax",%progbits
 1195              		.align	1
 1196              		.global	USBH_GetDescriptor
 1197              		.syntax unified
 1198              		.thumb
 1199              		.thumb_func
 1200              		.fpu fpv4-sp-d16
 1202              	USBH_GetDescriptor:
 1203              	.LVL100:
 1204              	.LFB136:
 202:Middlewares/ST/STM32_USB_Host_Library/Core/Src/usbh_ctlreq.c ****   if(phost->RequestState == CMD_SEND)
 1205              		.loc 1 202 1 is_stmt 1 view -0
 1206              		.cfi_startproc
 1207              		@ args = 4, pretend = 0, frame = 0
 1208              		@ frame_needed = 0, uses_anonymous_args = 0
 202:Middlewares/ST/STM32_USB_Host_Library/Core/Src/usbh_ctlreq.c ****   if(phost->RequestState == CMD_SEND)
 1209              		.loc 1 202 1 is_stmt 0 view .LVU420
 1210 0000 38B5     		push	{r3, r4, r5, lr}
 1211              	.LCFI12:
 1212              		.cfi_def_cfa_offset 16
 1213              		.cfi_offset 3, -16
 1214              		.cfi_offset 4, -12
 1215              		.cfi_offset 5, -8
 1216              		.cfi_offset 14, -4
 1217 0002 0D46     		mov	r5, r1
 1218 0004 1446     		mov	r4, r2
 1219 0006 1946     		mov	r1, r3
 1220              	.LVL101:
 202:Middlewares/ST/STM32_USB_Host_Library/Core/Src/usbh_ctlreq.c ****   if(phost->RequestState == CMD_SEND)
 1221              		.loc 1 202 1 view .LVU421
 1222 0008 BDF81020 		ldrh	r2, [sp, #16]
 1223              	.LVL102:
 203:Middlewares/ST/STM32_USB_Host_Library/Core/Src/usbh_ctlreq.c ****   {
 1224              		.loc 1 203 3 is_stmt 1 view .LVU422
 203:Middlewares/ST/STM32_USB_Host_Library/Core/Src/usbh_ctlreq.c ****   {
 1225              		.loc 1 203 11 is_stmt 0 view .LVU423
 1226 000c 8378     		ldrb	r3, [r0, #2]	@ zero_extendqisi2
 1227              	.LVL103:
 203:Middlewares/ST/STM32_USB_Host_Library/Core/Src/usbh_ctlreq.c ****   {
ARM GAS  /tmp/ccntKEh2.s 			page 45


 1228              		.loc 1 203 5 view .LVU424
 1229 000e 012B     		cmp	r3, #1
 1230 0010 02D0     		beq	.L93
 1231              	.L89:
 219:Middlewares/ST/STM32_USB_Host_Library/Core/Src/usbh_ctlreq.c **** }
 1232              		.loc 1 219 3 is_stmt 1 view .LVU425
 219:Middlewares/ST/STM32_USB_Host_Library/Core/Src/usbh_ctlreq.c **** }
 1233              		.loc 1 219 10 is_stmt 0 view .LVU426
 1234 0012 FFF7FEFF 		bl	USBH_CtlReq
 1235              	.LVL104:
 220:Middlewares/ST/STM32_USB_Host_Library/Core/Src/usbh_ctlreq.c **** 
 1236              		.loc 1 220 1 view .LVU427
 1237 0016 38BD     		pop	{r3, r4, r5, pc}
 1238              	.LVL105:
 1239              	.L93:
 205:Middlewares/ST/STM32_USB_Host_Library/Core/Src/usbh_ctlreq.c ****     phost->Control.setup.b.bRequest = USB_REQ_GET_DESCRIPTOR;
 1240              		.loc 1 205 5 is_stmt 1 view .LVU428
 205:Middlewares/ST/STM32_USB_Host_Library/Core/Src/usbh_ctlreq.c ****     phost->Control.setup.b.bRequest = USB_REQ_GET_DESCRIPTOR;
 1241              		.loc 1 205 42 is_stmt 0 view .LVU429
 1242 0018 65F07F05 		orn	r5, r5, #127
 1243 001c 0574     		strb	r5, [r0, #16]
 206:Middlewares/ST/STM32_USB_Host_Library/Core/Src/usbh_ctlreq.c ****     phost->Control.setup.b.wValue.w = value_idx;
 1244              		.loc 1 206 5 is_stmt 1 view .LVU430
 206:Middlewares/ST/STM32_USB_Host_Library/Core/Src/usbh_ctlreq.c ****     phost->Control.setup.b.wValue.w = value_idx;
 1245              		.loc 1 206 37 is_stmt 0 view .LVU431
 1246 001e 0623     		movs	r3, #6
 1247 0020 4374     		strb	r3, [r0, #17]
 207:Middlewares/ST/STM32_USB_Host_Library/Core/Src/usbh_ctlreq.c **** 
 1248              		.loc 1 207 5 is_stmt 1 view .LVU432
 207:Middlewares/ST/STM32_USB_Host_Library/Core/Src/usbh_ctlreq.c **** 
 1249              		.loc 1 207 37 is_stmt 0 view .LVU433
 1250 0022 4482     		strh	r4, [r0, #18]	@ movhi
 209:Middlewares/ST/STM32_USB_Host_Library/Core/Src/usbh_ctlreq.c ****     {
 1251              		.loc 1 209 5 is_stmt 1 view .LVU434
 209:Middlewares/ST/STM32_USB_Host_Library/Core/Src/usbh_ctlreq.c ****     {
 1252              		.loc 1 209 8 is_stmt 0 view .LVU435
 1253 0024 04F47F44 		and	r4, r4, #65280
 1254 0028 B4F5407F 		cmp	r4, #768
 1255 002c 03D0     		beq	.L94
 215:Middlewares/ST/STM32_USB_Host_Library/Core/Src/usbh_ctlreq.c ****     }
 1256              		.loc 1 215 7 is_stmt 1 view .LVU436
 215:Middlewares/ST/STM32_USB_Host_Library/Core/Src/usbh_ctlreq.c ****     }
 1257              		.loc 1 215 39 is_stmt 0 view .LVU437
 1258 002e 0023     		movs	r3, #0
 1259 0030 8382     		strh	r3, [r0, #20]	@ movhi
 1260              	.L91:
 217:Middlewares/ST/STM32_USB_Host_Library/Core/Src/usbh_ctlreq.c ****   }
 1261              		.loc 1 217 5 is_stmt 1 view .LVU438
 217:Middlewares/ST/STM32_USB_Host_Library/Core/Src/usbh_ctlreq.c ****   }
 1262              		.loc 1 217 38 is_stmt 0 view .LVU439
 1263 0032 C282     		strh	r2, [r0, #22]	@ movhi
 1264 0034 EDE7     		b	.L89
 1265              	.L94:
 211:Middlewares/ST/STM32_USB_Host_Library/Core/Src/usbh_ctlreq.c ****     }
 1266              		.loc 1 211 7 is_stmt 1 view .LVU440
 211:Middlewares/ST/STM32_USB_Host_Library/Core/Src/usbh_ctlreq.c ****     }
 1267              		.loc 1 211 39 is_stmt 0 view .LVU441
ARM GAS  /tmp/ccntKEh2.s 			page 46


 1268 0036 40F20943 		movw	r3, #1033
 1269 003a 8382     		strh	r3, [r0, #20]	@ movhi
 1270 003c F9E7     		b	.L91
 1271              		.cfi_endproc
 1272              	.LFE136:
 1274              		.section	.text.USBH_Get_DevDesc,"ax",%progbits
 1275              		.align	1
 1276              		.global	USBH_Get_DevDesc
 1277              		.syntax unified
 1278              		.thumb
 1279              		.thumb_func
 1280              		.fpu fpv4-sp-d16
 1282              	USBH_Get_DevDesc:
 1283              	.LVL106:
 1284              	.LFB133:
 105:Middlewares/ST/STM32_USB_Host_Library/Core/Src/usbh_ctlreq.c ****   USBH_StatusTypeDef status;
 1285              		.loc 1 105 1 is_stmt 1 view -0
 1286              		.cfi_startproc
 1287              		@ args = 0, pretend = 0, frame = 0
 1288              		@ frame_needed = 0, uses_anonymous_args = 0
 105:Middlewares/ST/STM32_USB_Host_Library/Core/Src/usbh_ctlreq.c ****   USBH_StatusTypeDef status;
 1289              		.loc 1 105 1 is_stmt 0 view .LVU443
 1290 0000 F0B5     		push	{r4, r5, r6, r7, lr}
 1291              	.LCFI13:
 1292              		.cfi_def_cfa_offset 20
 1293              		.cfi_offset 4, -20
 1294              		.cfi_offset 5, -16
 1295              		.cfi_offset 6, -12
 1296              		.cfi_offset 7, -8
 1297              		.cfi_offset 14, -4
 1298 0002 83B0     		sub	sp, sp, #12
 1299              	.LCFI14:
 1300              		.cfi_def_cfa_offset 32
 1301 0004 0446     		mov	r4, r0
 106:Middlewares/ST/STM32_USB_Host_Library/Core/Src/usbh_ctlreq.c **** 
 1302              		.loc 1 106 3 is_stmt 1 view .LVU444
 108:Middlewares/ST/STM32_USB_Host_Library/Core/Src/usbh_ctlreq.c ****                                   USB_REQ_RECIPIENT_DEVICE | USB_REQ_TYPE_STANDARD,
 1303              		.loc 1 108 3 view .LVU445
 111:Middlewares/ST/STM32_USB_Host_Library/Core/Src/usbh_ctlreq.c ****                                   (uint16_t)length)) == USBH_OK)
 1304              		.loc 1 111 48 is_stmt 0 view .LVU446
 1305 0006 00F58E76 		add	r6, r0, #284
 108:Middlewares/ST/STM32_USB_Host_Library/Core/Src/usbh_ctlreq.c ****                                   USB_REQ_RECIPIENT_DEVICE | USB_REQ_TYPE_STANDARD,
 1306              		.loc 1 108 16 view .LVU447
 1307 000a 0D46     		mov	r5, r1
 1308 000c 0091     		str	r1, [sp]
 1309 000e 3346     		mov	r3, r6
 1310 0010 4FF48072 		mov	r2, #256
 1311 0014 0021     		movs	r1, #0
 1312              	.LVL107:
 108:Middlewares/ST/STM32_USB_Host_Library/Core/Src/usbh_ctlreq.c ****                                   USB_REQ_RECIPIENT_DEVICE | USB_REQ_TYPE_STANDARD,
 1313              		.loc 1 108 16 view .LVU448
 1314 0016 FFF7FEFF 		bl	USBH_GetDescriptor
 1315              	.LVL108:
 108:Middlewares/ST/STM32_USB_Host_Library/Core/Src/usbh_ctlreq.c ****                                   USB_REQ_RECIPIENT_DEVICE | USB_REQ_TYPE_STANDARD,
 1316              		.loc 1 108 5 view .LVU449
 1317 001a 0746     		mov	r7, r0
 1318 001c 10B1     		cbz	r0, .L98
ARM GAS  /tmp/ccntKEh2.s 			page 47


 1319              	.LVL109:
 1320              	.L96:
 118:Middlewares/ST/STM32_USB_Host_Library/Core/Src/usbh_ctlreq.c **** }
 1321              		.loc 1 118 3 is_stmt 1 view .LVU450
 119:Middlewares/ST/STM32_USB_Host_Library/Core/Src/usbh_ctlreq.c **** 
 1322              		.loc 1 119 1 is_stmt 0 view .LVU451
 1323 001e 3846     		mov	r0, r7
 1324 0020 03B0     		add	sp, sp, #12
 1325              	.LCFI15:
 1326              		.cfi_remember_state
 1327              		.cfi_def_cfa_offset 20
 1328              		@ sp needed
 1329 0022 F0BD     		pop	{r4, r5, r6, r7, pc}
 1330              	.LVL110:
 1331              	.L98:
 1332              	.LCFI16:
 1333              		.cfi_restore_state
 115:Middlewares/ST/STM32_USB_Host_Library/Core/Src/usbh_ctlreq.c ****                       (uint16_t)length);
 1334              		.loc 1 115 5 is_stmt 1 view .LVU452
 1335 0024 2A46     		mov	r2, r5
 1336 0026 3146     		mov	r1, r6
 1337 0028 04F22230 		addw	r0, r4, #802
 1338              	.LVL111:
 115:Middlewares/ST/STM32_USB_Host_Library/Core/Src/usbh_ctlreq.c ****                       (uint16_t)length);
 1339              		.loc 1 115 5 is_stmt 0 view .LVU453
 1340 002c FFF7FEFF 		bl	USBH_ParseDevDesc
 1341              	.LVL112:
 1342 0030 F5E7     		b	.L96
 1343              		.cfi_endproc
 1344              	.LFE133:
 1346              		.section	.text.USBH_Get_CfgDesc,"ax",%progbits
 1347              		.align	1
 1348              		.global	USBH_Get_CfgDesc
 1349              		.syntax unified
 1350              		.thumb
 1351              		.thumb_func
 1352              		.fpu fpv4-sp-d16
 1354              	USBH_Get_CfgDesc:
 1355              	.LVL113:
 1356              	.LFB134:
 133:Middlewares/ST/STM32_USB_Host_Library/Core/Src/usbh_ctlreq.c ****   USBH_StatusTypeDef status;
 1357              		.loc 1 133 1 is_stmt 1 view -0
 1358              		.cfi_startproc
 1359              		@ args = 0, pretend = 0, frame = 0
 1360              		@ frame_needed = 0, uses_anonymous_args = 0
 133:Middlewares/ST/STM32_USB_Host_Library/Core/Src/usbh_ctlreq.c ****   USBH_StatusTypeDef status;
 1361              		.loc 1 133 1 is_stmt 0 view .LVU455
 1362 0000 F0B5     		push	{r4, r5, r6, r7, lr}
 1363              	.LCFI17:
 1364              		.cfi_def_cfa_offset 20
 1365              		.cfi_offset 4, -20
 1366              		.cfi_offset 5, -16
 1367              		.cfi_offset 6, -12
 1368              		.cfi_offset 7, -8
 1369              		.cfi_offset 14, -4
 1370 0002 83B0     		sub	sp, sp, #12
 1371              	.LCFI18:
ARM GAS  /tmp/ccntKEh2.s 			page 48


 1372              		.cfi_def_cfa_offset 32
 1373 0004 0446     		mov	r4, r0
 1374 0006 0D46     		mov	r5, r1
 134:Middlewares/ST/STM32_USB_Host_Library/Core/Src/usbh_ctlreq.c ****   uint8_t *pData;
 1375              		.loc 1 134 3 is_stmt 1 view .LVU456
 135:Middlewares/ST/STM32_USB_Host_Library/Core/Src/usbh_ctlreq.c **** #if (USBH_KEEP_CFG_DESCRIPTOR == 1U)
 1376              		.loc 1 135 3 view .LVU457
 137:Middlewares/ST/STM32_USB_Host_Library/Core/Src/usbh_ctlreq.c **** #else
 1377              		.loc 1 137 3 view .LVU458
 137:Middlewares/ST/STM32_USB_Host_Library/Core/Src/usbh_ctlreq.c **** #else
 1378              		.loc 1 137 9 is_stmt 0 view .LVU459
 1379 0008 00F11C06 		add	r6, r0, #28
 1380              	.LVL114:
 141:Middlewares/ST/STM32_USB_Host_Library/Core/Src/usbh_ctlreq.c ****                                   USB_REQ_RECIPIENT_DEVICE | USB_REQ_TYPE_STANDARD,
 1381              		.loc 1 141 3 is_stmt 1 view .LVU460
 141:Middlewares/ST/STM32_USB_Host_Library/Core/Src/usbh_ctlreq.c ****                                   USB_REQ_RECIPIENT_DEVICE | USB_REQ_TYPE_STANDARD,
 1382              		.loc 1 141 16 is_stmt 0 view .LVU461
 1383 000c 0091     		str	r1, [sp]
 1384 000e 3346     		mov	r3, r6
 1385 0010 4FF40072 		mov	r2, #512
 1386 0014 0021     		movs	r1, #0
 1387              	.LVL115:
 141:Middlewares/ST/STM32_USB_Host_Library/Core/Src/usbh_ctlreq.c ****                                   USB_REQ_RECIPIENT_DEVICE | USB_REQ_TYPE_STANDARD,
 1388              		.loc 1 141 16 view .LVU462
 1389 0016 FFF7FEFF 		bl	USBH_GetDescriptor
 1390              	.LVL116:
 141:Middlewares/ST/STM32_USB_Host_Library/Core/Src/usbh_ctlreq.c ****                                   USB_REQ_RECIPIENT_DEVICE | USB_REQ_TYPE_STANDARD,
 1391              		.loc 1 141 5 view .LVU463
 1392 001a 0746     		mov	r7, r0
 1393 001c 10B1     		cbz	r0, .L102
 1394              	.LVL117:
 1395              	.L100:
 154:Middlewares/ST/STM32_USB_Host_Library/Core/Src/usbh_ctlreq.c **** }
 1396              		.loc 1 154 3 is_stmt 1 view .LVU464
 155:Middlewares/ST/STM32_USB_Host_Library/Core/Src/usbh_ctlreq.c **** 
 1397              		.loc 1 155 1 is_stmt 0 view .LVU465
 1398 001e 3846     		mov	r0, r7
 1399 0020 03B0     		add	sp, sp, #12
 1400              	.LCFI19:
 1401              		.cfi_remember_state
 1402              		.cfi_def_cfa_offset 20
 1403              		@ sp needed
 1404 0022 F0BD     		pop	{r4, r5, r6, r7, pc}
 1405              	.LVL118:
 1406              	.L102:
 1407              	.LCFI20:
 1408              		.cfi_restore_state
 149:Middlewares/ST/STM32_USB_Host_Library/Core/Src/usbh_ctlreq.c ****                        pData,
 1409              		.loc 1 149 5 is_stmt 1 view .LVU466
 1410 0024 2A46     		mov	r2, r5
 1411 0026 3146     		mov	r1, r6
 1412 0028 04F54D70 		add	r0, r4, #820
 1413              	.LVL119:
 149:Middlewares/ST/STM32_USB_Host_Library/Core/Src/usbh_ctlreq.c ****                        pData,
 1414              		.loc 1 149 5 is_stmt 0 view .LVU467
 1415 002c FFF7FEFF 		bl	USBH_ParseCfgDesc
 1416              	.LVL120:
ARM GAS  /tmp/ccntKEh2.s 			page 49


 1417 0030 F5E7     		b	.L100
 1418              		.cfi_endproc
 1419              	.LFE134:
 1421              		.section	.text.USBH_Get_StringDesc,"ax",%progbits
 1422              		.align	1
 1423              		.global	USBH_Get_StringDesc
 1424              		.syntax unified
 1425              		.thumb
 1426              		.thumb_func
 1427              		.fpu fpv4-sp-d16
 1429              	USBH_Get_StringDesc:
 1430              	.LVL121:
 1431              	.LFB135:
 172:Middlewares/ST/STM32_USB_Host_Library/Core/Src/usbh_ctlreq.c ****   USBH_StatusTypeDef status;
 1432              		.loc 1 172 1 is_stmt 1 view -0
 1433              		.cfi_startproc
 1434              		@ args = 0, pretend = 0, frame = 0
 1435              		@ frame_needed = 0, uses_anonymous_args = 0
 172:Middlewares/ST/STM32_USB_Host_Library/Core/Src/usbh_ctlreq.c ****   USBH_StatusTypeDef status;
 1436              		.loc 1 172 1 is_stmt 0 view .LVU469
 1437 0000 F0B5     		push	{r4, r5, r6, r7, lr}
 1438              	.LCFI21:
 1439              		.cfi_def_cfa_offset 20
 1440              		.cfi_offset 4, -20
 1441              		.cfi_offset 5, -16
 1442              		.cfi_offset 6, -12
 1443              		.cfi_offset 7, -8
 1444              		.cfi_offset 14, -4
 1445 0002 83B0     		sub	sp, sp, #12
 1446              	.LCFI22:
 1447              		.cfi_def_cfa_offset 32
 1448 0004 1646     		mov	r6, r2
 1449 0006 1D46     		mov	r5, r3
 173:Middlewares/ST/STM32_USB_Host_Library/Core/Src/usbh_ctlreq.c ****   if((status = USBH_GetDescriptor(phost,
 1450              		.loc 1 173 3 is_stmt 1 view .LVU470
 174:Middlewares/ST/STM32_USB_Host_Library/Core/Src/usbh_ctlreq.c ****                                   USB_REQ_RECIPIENT_DEVICE | USB_REQ_TYPE_STANDARD,
 1451              		.loc 1 174 3 view .LVU471
 177:Middlewares/ST/STM32_USB_Host_Library/Core/Src/usbh_ctlreq.c ****                                   length)) == USBH_OK)
 1452              		.loc 1 177 48 is_stmt 0 view .LVU472
 1453 0008 00F58E74 		add	r4, r0, #284
 174:Middlewares/ST/STM32_USB_Host_Library/Core/Src/usbh_ctlreq.c ****                                   USB_REQ_RECIPIENT_DEVICE | USB_REQ_TYPE_STANDARD,
 1454              		.loc 1 174 16 view .LVU473
 1455 000c 0093     		str	r3, [sp]
 1456 000e 2346     		mov	r3, r4
 1457              	.LVL122:
 174:Middlewares/ST/STM32_USB_Host_Library/Core/Src/usbh_ctlreq.c ****                                   USB_REQ_RECIPIENT_DEVICE | USB_REQ_TYPE_STANDARD,
 1458              		.loc 1 174 16 view .LVU474
 1459 0010 41F44072 		orr	r2, r1, #768
 1460              	.LVL123:
 174:Middlewares/ST/STM32_USB_Host_Library/Core/Src/usbh_ctlreq.c ****                                   USB_REQ_RECIPIENT_DEVICE | USB_REQ_TYPE_STANDARD,
 1461              		.loc 1 174 16 view .LVU475
 1462 0014 0021     		movs	r1, #0
 1463              	.LVL124:
 174:Middlewares/ST/STM32_USB_Host_Library/Core/Src/usbh_ctlreq.c ****                                   USB_REQ_RECIPIENT_DEVICE | USB_REQ_TYPE_STANDARD,
 1464              		.loc 1 174 16 view .LVU476
 1465 0016 FFF7FEFF 		bl	USBH_GetDescriptor
 1466              	.LVL125:
ARM GAS  /tmp/ccntKEh2.s 			page 50


 174:Middlewares/ST/STM32_USB_Host_Library/Core/Src/usbh_ctlreq.c ****                                   USB_REQ_RECIPIENT_DEVICE | USB_REQ_TYPE_STANDARD,
 1467              		.loc 1 174 5 view .LVU477
 1468 001a 0746     		mov	r7, r0
 1469 001c 10B1     		cbz	r0, .L106
 1470              	.LVL126:
 1471              	.L104:
 183:Middlewares/ST/STM32_USB_Host_Library/Core/Src/usbh_ctlreq.c **** }
 1472              		.loc 1 183 3 is_stmt 1 view .LVU478
 184:Middlewares/ST/STM32_USB_Host_Library/Core/Src/usbh_ctlreq.c **** 
 1473              		.loc 1 184 1 is_stmt 0 view .LVU479
 1474 001e 3846     		mov	r0, r7
 1475 0020 03B0     		add	sp, sp, #12
 1476              	.LCFI23:
 1477              		.cfi_remember_state
 1478              		.cfi_def_cfa_offset 20
 1479              		@ sp needed
 1480 0022 F0BD     		pop	{r4, r5, r6, r7, pc}
 1481              	.LVL127:
 1482              	.L106:
 1483              	.LCFI24:
 1484              		.cfi_restore_state
 181:Middlewares/ST/STM32_USB_Host_Library/Core/Src/usbh_ctlreq.c ****   }
 1485              		.loc 1 181 5 is_stmt 1 view .LVU480
 1486 0024 2A46     		mov	r2, r5
 1487 0026 3146     		mov	r1, r6
 1488 0028 2046     		mov	r0, r4
 1489              	.LVL128:
 181:Middlewares/ST/STM32_USB_Host_Library/Core/Src/usbh_ctlreq.c ****   }
 1490              		.loc 1 181 5 is_stmt 0 view .LVU481
 1491 002a FFF7FEFF 		bl	USBH_ParseStringDesc
 1492              	.LVL129:
 1493 002e F6E7     		b	.L104
 1494              		.cfi_endproc
 1495              	.LFE135:
 1497              		.section	.text.USBH_SetAddress,"ax",%progbits
 1498              		.align	1
 1499              		.global	USBH_SetAddress
 1500              		.syntax unified
 1501              		.thumb
 1502              		.thumb_func
 1503              		.fpu fpv4-sp-d16
 1505              	USBH_SetAddress:
 1506              	.LVL130:
 1507              	.LFB137:
 231:Middlewares/ST/STM32_USB_Host_Library/Core/Src/usbh_ctlreq.c ****   if(phost->RequestState == CMD_SEND)
 1508              		.loc 1 231 1 is_stmt 1 view -0
 1509              		.cfi_startproc
 1510              		@ args = 0, pretend = 0, frame = 0
 1511              		@ frame_needed = 0, uses_anonymous_args = 0
 231:Middlewares/ST/STM32_USB_Host_Library/Core/Src/usbh_ctlreq.c ****   if(phost->RequestState == CMD_SEND)
 1512              		.loc 1 231 1 is_stmt 0 view .LVU483
 1513 0000 08B5     		push	{r3, lr}
 1514              	.LCFI25:
 1515              		.cfi_def_cfa_offset 8
 1516              		.cfi_offset 3, -8
 1517              		.cfi_offset 14, -4
 232:Middlewares/ST/STM32_USB_Host_Library/Core/Src/usbh_ctlreq.c ****   {
ARM GAS  /tmp/ccntKEh2.s 			page 51


 1518              		.loc 1 232 3 is_stmt 1 view .LVU484
 232:Middlewares/ST/STM32_USB_Host_Library/Core/Src/usbh_ctlreq.c ****   {
 1519              		.loc 1 232 11 is_stmt 0 view .LVU485
 1520 0002 8378     		ldrb	r3, [r0, #2]	@ zero_extendqisi2
 232:Middlewares/ST/STM32_USB_Host_Library/Core/Src/usbh_ctlreq.c ****   {
 1521              		.loc 1 232 5 view .LVU486
 1522 0004 012B     		cmp	r3, #1
 1523 0006 04D0     		beq	.L110
 1524              	.L108:
 243:Middlewares/ST/STM32_USB_Host_Library/Core/Src/usbh_ctlreq.c **** }
 1525              		.loc 1 243 3 is_stmt 1 view .LVU487
 243:Middlewares/ST/STM32_USB_Host_Library/Core/Src/usbh_ctlreq.c **** }
 1526              		.loc 1 243 10 is_stmt 0 view .LVU488
 1527 0008 0022     		movs	r2, #0
 1528 000a 1146     		mov	r1, r2
 1529              	.LVL131:
 243:Middlewares/ST/STM32_USB_Host_Library/Core/Src/usbh_ctlreq.c **** }
 1530              		.loc 1 243 10 view .LVU489
 1531 000c FFF7FEFF 		bl	USBH_CtlReq
 1532              	.LVL132:
 244:Middlewares/ST/STM32_USB_Host_Library/Core/Src/usbh_ctlreq.c **** 
 1533              		.loc 1 244 1 view .LVU490
 1534 0010 08BD     		pop	{r3, pc}
 1535              	.LVL133:
 1536              	.L110:
 234:Middlewares/ST/STM32_USB_Host_Library/Core/Src/usbh_ctlreq.c ****       USB_REQ_TYPE_STANDARD;
 1537              		.loc 1 234 5 is_stmt 1 view .LVU491
 234:Middlewares/ST/STM32_USB_Host_Library/Core/Src/usbh_ctlreq.c ****       USB_REQ_TYPE_STANDARD;
 1538              		.loc 1 234 42 is_stmt 0 view .LVU492
 1539 0012 0023     		movs	r3, #0
 1540 0014 0374     		strb	r3, [r0, #16]
 237:Middlewares/ST/STM32_USB_Host_Library/Core/Src/usbh_ctlreq.c **** 
 1541              		.loc 1 237 5 is_stmt 1 view .LVU493
 237:Middlewares/ST/STM32_USB_Host_Library/Core/Src/usbh_ctlreq.c **** 
 1542              		.loc 1 237 37 is_stmt 0 view .LVU494
 1543 0016 0522     		movs	r2, #5
 1544 0018 4274     		strb	r2, [r0, #17]
 239:Middlewares/ST/STM32_USB_Host_Library/Core/Src/usbh_ctlreq.c ****     phost->Control.setup.b.wIndex.w = 0U;
 1545              		.loc 1 239 5 is_stmt 1 view .LVU495
 239:Middlewares/ST/STM32_USB_Host_Library/Core/Src/usbh_ctlreq.c ****     phost->Control.setup.b.wIndex.w = 0U;
 1546              		.loc 1 239 37 is_stmt 0 view .LVU496
 1547 001a 4182     		strh	r1, [r0, #18]	@ movhi
 240:Middlewares/ST/STM32_USB_Host_Library/Core/Src/usbh_ctlreq.c ****     phost->Control.setup.b.wLength.w = 0U;
 1548              		.loc 1 240 5 is_stmt 1 view .LVU497
 240:Middlewares/ST/STM32_USB_Host_Library/Core/Src/usbh_ctlreq.c ****     phost->Control.setup.b.wLength.w = 0U;
 1549              		.loc 1 240 37 is_stmt 0 view .LVU498
 1550 001c 8382     		strh	r3, [r0, #20]	@ movhi
 241:Middlewares/ST/STM32_USB_Host_Library/Core/Src/usbh_ctlreq.c ****   }
 1551              		.loc 1 241 5 is_stmt 1 view .LVU499
 241:Middlewares/ST/STM32_USB_Host_Library/Core/Src/usbh_ctlreq.c ****   }
 1552              		.loc 1 241 38 is_stmt 0 view .LVU500
 1553 001e C382     		strh	r3, [r0, #22]	@ movhi
 1554 0020 F2E7     		b	.L108
 1555              		.cfi_endproc
 1556              	.LFE137:
 1558              		.section	.text.USBH_SetCfg,"ax",%progbits
 1559              		.align	1
ARM GAS  /tmp/ccntKEh2.s 			page 52


 1560              		.global	USBH_SetCfg
 1561              		.syntax unified
 1562              		.thumb
 1563              		.thumb_func
 1564              		.fpu fpv4-sp-d16
 1566              	USBH_SetCfg:
 1567              	.LVL134:
 1568              	.LFB138:
 254:Middlewares/ST/STM32_USB_Host_Library/Core/Src/usbh_ctlreq.c ****   if(phost->RequestState == CMD_SEND)
 1569              		.loc 1 254 1 is_stmt 1 view -0
 1570              		.cfi_startproc
 1571              		@ args = 0, pretend = 0, frame = 0
 1572              		@ frame_needed = 0, uses_anonymous_args = 0
 254:Middlewares/ST/STM32_USB_Host_Library/Core/Src/usbh_ctlreq.c ****   if(phost->RequestState == CMD_SEND)
 1573              		.loc 1 254 1 is_stmt 0 view .LVU502
 1574 0000 08B5     		push	{r3, lr}
 1575              	.LCFI26:
 1576              		.cfi_def_cfa_offset 8
 1577              		.cfi_offset 3, -8
 1578              		.cfi_offset 14, -4
 255:Middlewares/ST/STM32_USB_Host_Library/Core/Src/usbh_ctlreq.c ****   {
 1579              		.loc 1 255 3 is_stmt 1 view .LVU503
 255:Middlewares/ST/STM32_USB_Host_Library/Core/Src/usbh_ctlreq.c ****   {
 1580              		.loc 1 255 11 is_stmt 0 view .LVU504
 1581 0002 8378     		ldrb	r3, [r0, #2]	@ zero_extendqisi2
 255:Middlewares/ST/STM32_USB_Host_Library/Core/Src/usbh_ctlreq.c ****   {
 1582              		.loc 1 255 5 view .LVU505
 1583 0004 012B     		cmp	r3, #1
 1584 0006 04D0     		beq	.L114
 1585              	.L112:
 266:Middlewares/ST/STM32_USB_Host_Library/Core/Src/usbh_ctlreq.c **** }
 1586              		.loc 1 266 3 is_stmt 1 view .LVU506
 266:Middlewares/ST/STM32_USB_Host_Library/Core/Src/usbh_ctlreq.c **** }
 1587              		.loc 1 266 10 is_stmt 0 view .LVU507
 1588 0008 0022     		movs	r2, #0
 1589 000a 1146     		mov	r1, r2
 1590              	.LVL135:
 266:Middlewares/ST/STM32_USB_Host_Library/Core/Src/usbh_ctlreq.c **** }
 1591              		.loc 1 266 10 view .LVU508
 1592 000c FFF7FEFF 		bl	USBH_CtlReq
 1593              	.LVL136:
 267:Middlewares/ST/STM32_USB_Host_Library/Core/Src/usbh_ctlreq.c **** 
 1594              		.loc 1 267 1 view .LVU509
 1595 0010 08BD     		pop	{r3, pc}
 1596              	.LVL137:
 1597              	.L114:
 257:Middlewares/ST/STM32_USB_Host_Library/Core/Src/usbh_ctlreq.c ****                                                    | USB_REQ_TYPE_STANDARD;
 1598              		.loc 1 257 5 is_stmt 1 view .LVU510
 257:Middlewares/ST/STM32_USB_Host_Library/Core/Src/usbh_ctlreq.c ****                                                    | USB_REQ_TYPE_STANDARD;
 1599              		.loc 1 257 42 is_stmt 0 view .LVU511
 1600 0012 0023     		movs	r3, #0
 1601 0014 0374     		strb	r3, [r0, #16]
 260:Middlewares/ST/STM32_USB_Host_Library/Core/Src/usbh_ctlreq.c ****     phost->Control.setup.b.wValue.w = cfg_idx;
 1602              		.loc 1 260 5 is_stmt 1 view .LVU512
 260:Middlewares/ST/STM32_USB_Host_Library/Core/Src/usbh_ctlreq.c ****     phost->Control.setup.b.wValue.w = cfg_idx;
 1603              		.loc 1 260 37 is_stmt 0 view .LVU513
 1604 0016 0922     		movs	r2, #9
ARM GAS  /tmp/ccntKEh2.s 			page 53


 1605 0018 4274     		strb	r2, [r0, #17]
 261:Middlewares/ST/STM32_USB_Host_Library/Core/Src/usbh_ctlreq.c ****     phost->Control.setup.b.wIndex.w = 0U;
 1606              		.loc 1 261 5 is_stmt 1 view .LVU514
 261:Middlewares/ST/STM32_USB_Host_Library/Core/Src/usbh_ctlreq.c ****     phost->Control.setup.b.wIndex.w = 0U;
 1607              		.loc 1 261 37 is_stmt 0 view .LVU515
 1608 001a 4182     		strh	r1, [r0, #18]	@ movhi
 262:Middlewares/ST/STM32_USB_Host_Library/Core/Src/usbh_ctlreq.c ****     phost->Control.setup.b.wLength.w = 0U;
 1609              		.loc 1 262 5 is_stmt 1 view .LVU516
 262:Middlewares/ST/STM32_USB_Host_Library/Core/Src/usbh_ctlreq.c ****     phost->Control.setup.b.wLength.w = 0U;
 1610              		.loc 1 262 37 is_stmt 0 view .LVU517
 1611 001c 8382     		strh	r3, [r0, #20]	@ movhi
 263:Middlewares/ST/STM32_USB_Host_Library/Core/Src/usbh_ctlreq.c ****   }
 1612              		.loc 1 263 5 is_stmt 1 view .LVU518
 263:Middlewares/ST/STM32_USB_Host_Library/Core/Src/usbh_ctlreq.c ****   }
 1613              		.loc 1 263 38 is_stmt 0 view .LVU519
 1614 001e C382     		strh	r3, [r0, #22]	@ movhi
 1615 0020 F2E7     		b	.L112
 1616              		.cfi_endproc
 1617              	.LFE138:
 1619              		.section	.text.USBH_SetInterface,"ax",%progbits
 1620              		.align	1
 1621              		.global	USBH_SetInterface
 1622              		.syntax unified
 1623              		.thumb
 1624              		.thumb_func
 1625              		.fpu fpv4-sp-d16
 1627              	USBH_SetInterface:
 1628              	.LVL138:
 1629              	.LFB139:
 278:Middlewares/ST/STM32_USB_Host_Library/Core/Src/usbh_ctlreq.c ****   if(phost->RequestState == CMD_SEND)
 1630              		.loc 1 278 1 is_stmt 1 view -0
 1631              		.cfi_startproc
 1632              		@ args = 0, pretend = 0, frame = 0
 1633              		@ frame_needed = 0, uses_anonymous_args = 0
 278:Middlewares/ST/STM32_USB_Host_Library/Core/Src/usbh_ctlreq.c ****   if(phost->RequestState == CMD_SEND)
 1634              		.loc 1 278 1 is_stmt 0 view .LVU521
 1635 0000 08B5     		push	{r3, lr}
 1636              	.LCFI27:
 1637              		.cfi_def_cfa_offset 8
 1638              		.cfi_offset 3, -8
 1639              		.cfi_offset 14, -4
 279:Middlewares/ST/STM32_USB_Host_Library/Core/Src/usbh_ctlreq.c ****   {
 1640              		.loc 1 279 3 is_stmt 1 view .LVU522
 279:Middlewares/ST/STM32_USB_Host_Library/Core/Src/usbh_ctlreq.c ****   {
 1641              		.loc 1 279 11 is_stmt 0 view .LVU523
 1642 0002 8378     		ldrb	r3, [r0, #2]	@ zero_extendqisi2
 279:Middlewares/ST/STM32_USB_Host_Library/Core/Src/usbh_ctlreq.c ****   {
 1643              		.loc 1 279 5 view .LVU524
 1644 0004 012B     		cmp	r3, #1
 1645 0006 04D0     		beq	.L118
 1646              	.L116:
 289:Middlewares/ST/STM32_USB_Host_Library/Core/Src/usbh_ctlreq.c **** }
 1647              		.loc 1 289 3 is_stmt 1 view .LVU525
 289:Middlewares/ST/STM32_USB_Host_Library/Core/Src/usbh_ctlreq.c **** }
 1648              		.loc 1 289 10 is_stmt 0 view .LVU526
 1649 0008 0022     		movs	r2, #0
 1650              	.LVL139:
ARM GAS  /tmp/ccntKEh2.s 			page 54


 289:Middlewares/ST/STM32_USB_Host_Library/Core/Src/usbh_ctlreq.c **** }
 1651              		.loc 1 289 10 view .LVU527
 1652 000a 1146     		mov	r1, r2
 1653              	.LVL140:
 289:Middlewares/ST/STM32_USB_Host_Library/Core/Src/usbh_ctlreq.c **** }
 1654              		.loc 1 289 10 view .LVU528
 1655 000c FFF7FEFF 		bl	USBH_CtlReq
 1656              	.LVL141:
 290:Middlewares/ST/STM32_USB_Host_Library/Core/Src/usbh_ctlreq.c **** 
 1657              		.loc 1 290 1 view .LVU529
 1658 0010 08BD     		pop	{r3, pc}
 1659              	.LVL142:
 1660              	.L118:
 281:Middlewares/ST/STM32_USB_Host_Library/Core/Src/usbh_ctlreq.c ****                                                    | USB_REQ_TYPE_STANDARD;
 1661              		.loc 1 281 5 is_stmt 1 view .LVU530
 281:Middlewares/ST/STM32_USB_Host_Library/Core/Src/usbh_ctlreq.c ****                                                    | USB_REQ_TYPE_STANDARD;
 1662              		.loc 1 281 42 is_stmt 0 view .LVU531
 1663 0012 0374     		strb	r3, [r0, #16]
 284:Middlewares/ST/STM32_USB_Host_Library/Core/Src/usbh_ctlreq.c ****     phost->Control.setup.b.wValue.w = altSetting;
 1664              		.loc 1 284 5 is_stmt 1 view .LVU532
 284:Middlewares/ST/STM32_USB_Host_Library/Core/Src/usbh_ctlreq.c ****     phost->Control.setup.b.wValue.w = altSetting;
 1665              		.loc 1 284 37 is_stmt 0 view .LVU533
 1666 0014 0B23     		movs	r3, #11
 1667 0016 4374     		strb	r3, [r0, #17]
 285:Middlewares/ST/STM32_USB_Host_Library/Core/Src/usbh_ctlreq.c ****     phost->Control.setup.b.wIndex.w = ep_num;
 1668              		.loc 1 285 5 is_stmt 1 view .LVU534
 285:Middlewares/ST/STM32_USB_Host_Library/Core/Src/usbh_ctlreq.c ****     phost->Control.setup.b.wIndex.w = ep_num;
 1669              		.loc 1 285 37 is_stmt 0 view .LVU535
 1670 0018 4282     		strh	r2, [r0, #18]	@ movhi
 286:Middlewares/ST/STM32_USB_Host_Library/Core/Src/usbh_ctlreq.c ****     phost->Control.setup.b.wLength.w = 0U;
 1671              		.loc 1 286 5 is_stmt 1 view .LVU536
 286:Middlewares/ST/STM32_USB_Host_Library/Core/Src/usbh_ctlreq.c ****     phost->Control.setup.b.wLength.w = 0U;
 1672              		.loc 1 286 37 is_stmt 0 view .LVU537
 1673 001a 8182     		strh	r1, [r0, #20]	@ movhi
 287:Middlewares/ST/STM32_USB_Host_Library/Core/Src/usbh_ctlreq.c ****   }
 1674              		.loc 1 287 5 is_stmt 1 view .LVU538
 287:Middlewares/ST/STM32_USB_Host_Library/Core/Src/usbh_ctlreq.c ****   }
 1675              		.loc 1 287 38 is_stmt 0 view .LVU539
 1676 001c 0023     		movs	r3, #0
 1677 001e C382     		strh	r3, [r0, #22]	@ movhi
 1678 0020 F2E7     		b	.L116
 1679              		.cfi_endproc
 1680              	.LFE139:
 1682              		.section	.text.USBH_SetFeature,"ax",%progbits
 1683              		.align	1
 1684              		.global	USBH_SetFeature
 1685              		.syntax unified
 1686              		.thumb
 1687              		.thumb_func
 1688              		.fpu fpv4-sp-d16
 1690              	USBH_SetFeature:
 1691              	.LVL143:
 1692              	.LFB140:
 300:Middlewares/ST/STM32_USB_Host_Library/Core/Src/usbh_ctlreq.c ****   if(phost->RequestState == CMD_SEND)
 1693              		.loc 1 300 1 is_stmt 1 view -0
 1694              		.cfi_startproc
 1695              		@ args = 0, pretend = 0, frame = 0
ARM GAS  /tmp/ccntKEh2.s 			page 55


 1696              		@ frame_needed = 0, uses_anonymous_args = 0
 300:Middlewares/ST/STM32_USB_Host_Library/Core/Src/usbh_ctlreq.c ****   if(phost->RequestState == CMD_SEND)
 1697              		.loc 1 300 1 is_stmt 0 view .LVU541
 1698 0000 08B5     		push	{r3, lr}
 1699              	.LCFI28:
 1700              		.cfi_def_cfa_offset 8
 1701              		.cfi_offset 3, -8
 1702              		.cfi_offset 14, -4
 301:Middlewares/ST/STM32_USB_Host_Library/Core/Src/usbh_ctlreq.c ****   {
 1703              		.loc 1 301 3 is_stmt 1 view .LVU542
 301:Middlewares/ST/STM32_USB_Host_Library/Core/Src/usbh_ctlreq.c ****   {
 1704              		.loc 1 301 11 is_stmt 0 view .LVU543
 1705 0002 8378     		ldrb	r3, [r0, #2]	@ zero_extendqisi2
 301:Middlewares/ST/STM32_USB_Host_Library/Core/Src/usbh_ctlreq.c ****   {
 1706              		.loc 1 301 5 view .LVU544
 1707 0004 012B     		cmp	r3, #1
 1708 0006 04D0     		beq	.L122
 1709              	.L120:
 312:Middlewares/ST/STM32_USB_Host_Library/Core/Src/usbh_ctlreq.c **** }
 1710              		.loc 1 312 3 is_stmt 1 view .LVU545
 312:Middlewares/ST/STM32_USB_Host_Library/Core/Src/usbh_ctlreq.c **** }
 1711              		.loc 1 312 10 is_stmt 0 view .LVU546
 1712 0008 0022     		movs	r2, #0
 1713 000a 1146     		mov	r1, r2
 1714              	.LVL144:
 312:Middlewares/ST/STM32_USB_Host_Library/Core/Src/usbh_ctlreq.c **** }
 1715              		.loc 1 312 10 view .LVU547
 1716 000c FFF7FEFF 		bl	USBH_CtlReq
 1717              	.LVL145:
 313:Middlewares/ST/STM32_USB_Host_Library/Core/Src/usbh_ctlreq.c **** 
 1718              		.loc 1 313 1 view .LVU548
 1719 0010 08BD     		pop	{r3, pc}
 1720              	.LVL146:
 1721              	.L122:
 303:Middlewares/ST/STM32_USB_Host_Library/Core/Src/usbh_ctlreq.c ****                                                    | USB_REQ_TYPE_STANDARD;
 1722              		.loc 1 303 5 is_stmt 1 view .LVU549
 303:Middlewares/ST/STM32_USB_Host_Library/Core/Src/usbh_ctlreq.c ****                                                    | USB_REQ_TYPE_STANDARD;
 1723              		.loc 1 303 42 is_stmt 0 view .LVU550
 1724 0012 0023     		movs	r3, #0
 1725 0014 0374     		strb	r3, [r0, #16]
 306:Middlewares/ST/STM32_USB_Host_Library/Core/Src/usbh_ctlreq.c ****     phost->Control.setup.b.wValue.w = wValue;
 1726              		.loc 1 306 5 is_stmt 1 view .LVU551
 306:Middlewares/ST/STM32_USB_Host_Library/Core/Src/usbh_ctlreq.c ****     phost->Control.setup.b.wValue.w = wValue;
 1727              		.loc 1 306 37 is_stmt 0 view .LVU552
 1728 0016 0322     		movs	r2, #3
 1729 0018 4274     		strb	r2, [r0, #17]
 307:Middlewares/ST/STM32_USB_Host_Library/Core/Src/usbh_ctlreq.c ****     phost->Control.setup.b.wIndex.w = 0U;
 1730              		.loc 1 307 5 is_stmt 1 view .LVU553
 307:Middlewares/ST/STM32_USB_Host_Library/Core/Src/usbh_ctlreq.c ****     phost->Control.setup.b.wIndex.w = 0U;
 1731              		.loc 1 307 37 is_stmt 0 view .LVU554
 1732 001a 4182     		strh	r1, [r0, #18]	@ movhi
 308:Middlewares/ST/STM32_USB_Host_Library/Core/Src/usbh_ctlreq.c ****     phost->Control.setup.b.wLength.w = 0U;
 1733              		.loc 1 308 5 is_stmt 1 view .LVU555
 308:Middlewares/ST/STM32_USB_Host_Library/Core/Src/usbh_ctlreq.c ****     phost->Control.setup.b.wLength.w = 0U;
 1734              		.loc 1 308 37 is_stmt 0 view .LVU556
 1735 001c 8382     		strh	r3, [r0, #20]	@ movhi
 309:Middlewares/ST/STM32_USB_Host_Library/Core/Src/usbh_ctlreq.c ****   }
ARM GAS  /tmp/ccntKEh2.s 			page 56


 1736              		.loc 1 309 5 is_stmt 1 view .LVU557
 309:Middlewares/ST/STM32_USB_Host_Library/Core/Src/usbh_ctlreq.c ****   }
 1737              		.loc 1 309 38 is_stmt 0 view .LVU558
 1738 001e C382     		strh	r3, [r0, #22]	@ movhi
 1739 0020 F2E7     		b	.L120
 1740              		.cfi_endproc
 1741              	.LFE140:
 1743              		.section	.text.USBH_ClrFeature,"ax",%progbits
 1744              		.align	1
 1745              		.global	USBH_ClrFeature
 1746              		.syntax unified
 1747              		.thumb
 1748              		.thumb_func
 1749              		.fpu fpv4-sp-d16
 1751              	USBH_ClrFeature:
 1752              	.LVL147:
 1753              	.LFB141:
 324:Middlewares/ST/STM32_USB_Host_Library/Core/Src/usbh_ctlreq.c ****   if(phost->RequestState == CMD_SEND)
 1754              		.loc 1 324 1 is_stmt 1 view -0
 1755              		.cfi_startproc
 1756              		@ args = 0, pretend = 0, frame = 0
 1757              		@ frame_needed = 0, uses_anonymous_args = 0
 324:Middlewares/ST/STM32_USB_Host_Library/Core/Src/usbh_ctlreq.c ****   if(phost->RequestState == CMD_SEND)
 1758              		.loc 1 324 1 is_stmt 0 view .LVU560
 1759 0000 08B5     		push	{r3, lr}
 1760              	.LCFI29:
 1761              		.cfi_def_cfa_offset 8
 1762              		.cfi_offset 3, -8
 1763              		.cfi_offset 14, -4
 325:Middlewares/ST/STM32_USB_Host_Library/Core/Src/usbh_ctlreq.c ****   {
 1764              		.loc 1 325 3 is_stmt 1 view .LVU561
 325:Middlewares/ST/STM32_USB_Host_Library/Core/Src/usbh_ctlreq.c ****   {
 1765              		.loc 1 325 11 is_stmt 0 view .LVU562
 1766 0002 8378     		ldrb	r3, [r0, #2]	@ zero_extendqisi2
 325:Middlewares/ST/STM32_USB_Host_Library/Core/Src/usbh_ctlreq.c ****   {
 1767              		.loc 1 325 5 view .LVU563
 1768 0004 012B     		cmp	r3, #1
 1769 0006 04D0     		beq	.L126
 1770              	.L124:
 335:Middlewares/ST/STM32_USB_Host_Library/Core/Src/usbh_ctlreq.c **** }
 1771              		.loc 1 335 3 is_stmt 1 view .LVU564
 335:Middlewares/ST/STM32_USB_Host_Library/Core/Src/usbh_ctlreq.c **** }
 1772              		.loc 1 335 10 is_stmt 0 view .LVU565
 1773 0008 0022     		movs	r2, #0
 1774 000a 1146     		mov	r1, r2
 1775              	.LVL148:
 335:Middlewares/ST/STM32_USB_Host_Library/Core/Src/usbh_ctlreq.c **** }
 1776              		.loc 1 335 10 view .LVU566
 1777 000c FFF7FEFF 		bl	USBH_CtlReq
 1778              	.LVL149:
 336:Middlewares/ST/STM32_USB_Host_Library/Core/Src/usbh_ctlreq.c **** 
 1779              		.loc 1 336 1 view .LVU567
 1780 0010 08BD     		pop	{r3, pc}
 1781              	.LVL150:
 1782              	.L126:
 327:Middlewares/ST/STM32_USB_Host_Library/Core/Src/usbh_ctlreq.c ****                                                    | USB_REQ_TYPE_STANDARD;
 1783              		.loc 1 327 5 is_stmt 1 view .LVU568
ARM GAS  /tmp/ccntKEh2.s 			page 57


 327:Middlewares/ST/STM32_USB_Host_Library/Core/Src/usbh_ctlreq.c ****                                                    | USB_REQ_TYPE_STANDARD;
 1784              		.loc 1 327 42 is_stmt 0 view .LVU569
 1785 0012 0223     		movs	r3, #2
 1786 0014 0374     		strb	r3, [r0, #16]
 330:Middlewares/ST/STM32_USB_Host_Library/Core/Src/usbh_ctlreq.c ****     phost->Control.setup.b.wValue.w = FEATURE_SELECTOR_ENDPOINT;
 1787              		.loc 1 330 5 is_stmt 1 view .LVU570
 330:Middlewares/ST/STM32_USB_Host_Library/Core/Src/usbh_ctlreq.c ****     phost->Control.setup.b.wValue.w = FEATURE_SELECTOR_ENDPOINT;
 1788              		.loc 1 330 37 is_stmt 0 view .LVU571
 1789 0016 0123     		movs	r3, #1
 1790 0018 4374     		strb	r3, [r0, #17]
 331:Middlewares/ST/STM32_USB_Host_Library/Core/Src/usbh_ctlreq.c ****     phost->Control.setup.b.wIndex.w = ep_num;
 1791              		.loc 1 331 5 is_stmt 1 view .LVU572
 331:Middlewares/ST/STM32_USB_Host_Library/Core/Src/usbh_ctlreq.c ****     phost->Control.setup.b.wIndex.w = ep_num;
 1792              		.loc 1 331 37 is_stmt 0 view .LVU573
 1793 001a 0023     		movs	r3, #0
 1794 001c 4382     		strh	r3, [r0, #18]	@ movhi
 332:Middlewares/ST/STM32_USB_Host_Library/Core/Src/usbh_ctlreq.c ****     phost->Control.setup.b.wLength.w = 0U;
 1795              		.loc 1 332 5 is_stmt 1 view .LVU574
 332:Middlewares/ST/STM32_USB_Host_Library/Core/Src/usbh_ctlreq.c ****     phost->Control.setup.b.wLength.w = 0U;
 1796              		.loc 1 332 37 is_stmt 0 view .LVU575
 1797 001e 8182     		strh	r1, [r0, #20]	@ movhi
 333:Middlewares/ST/STM32_USB_Host_Library/Core/Src/usbh_ctlreq.c ****   }
 1798              		.loc 1 333 5 is_stmt 1 view .LVU576
 333:Middlewares/ST/STM32_USB_Host_Library/Core/Src/usbh_ctlreq.c ****   }
 1799              		.loc 1 333 38 is_stmt 0 view .LVU577
 1800 0020 C382     		strh	r3, [r0, #22]	@ movhi
 1801 0022 F1E7     		b	.L124
 1802              		.cfi_endproc
 1803              	.LFE141:
 1805              		.text
 1806              	.Letext0:
 1807              		.file 2 "/usr/arm-none-eabi/include/machine/_default_types.h"
 1808              		.file 3 "/usr/arm-none-eabi/include/sys/lock.h"
 1809              		.file 4 "/usr/arm-none-eabi/include/sys/_types.h"
 1810              		.file 5 "/usr/lib/gcc/arm-none-eabi/9.2.1/include/stddef.h"
 1811              		.file 6 "/usr/arm-none-eabi/include/sys/reent.h"
 1812              		.file 7 "/usr/arm-none-eabi/include/sys/_stdint.h"
 1813              		.file 8 "/usr/arm-none-eabi/include/stdlib.h"
 1814              		.file 9 "Drivers/CMSIS/Include/core_cm4.h"
 1815              		.file 10 "Drivers/CMSIS/Device/ST/STM32F4xx/Include/system_stm32f4xx.h"
 1816              		.file 11 "Drivers/STM32F4xx_HAL_Driver/Inc/stm32f4xx_hal.h"
 1817              		.file 12 "Middlewares/ST/STM32_USB_Host_Library/Core/Inc/usbh_def.h"
 1818              		.file 13 "Middlewares/ST/STM32_USB_Host_Library/Core/Inc/usbh_ctlreq.h"
 1819              		.file 14 "Middlewares/ST/STM32_USB_Host_Library/Core/Inc/usbh_ioreq.h"
 1820              		.file 15 "Middlewares/ST/STM32_USB_Host_Library/Core/Inc/usbh_core.h"
ARM GAS  /tmp/ccntKEh2.s 			page 58

